
mcb_rev1.elf:     file format elf32-littlearm

Sections:
Idx Name          Size      VMA       LMA       File off  Algn
  0 .isr_vector   000000c0  08000000  08000000  00010000  2**0
                  CONTENTS, ALLOC, LOAD, READONLY, DATA
  1 .text         00003890  080000c0  080000c0  000100c0  2**2
                  CONTENTS, ALLOC, LOAD, READONLY, CODE
  2 .rodata       00000058  08003950  08003950  00013950  2**2
                  CONTENTS, ALLOC, LOAD, READONLY, DATA
  3 .ARM.extab    00000000  080039a8  080039a8  00020074  2**0
                  CONTENTS
  4 .ARM          00000000  080039a8  080039a8  00020074  2**0
                  CONTENTS
  5 .preinit_array 00000000  080039a8  080039a8  00020074  2**0
                  CONTENTS, ALLOC, LOAD, DATA
  6 .init_array   00000008  080039a8  080039a8  000139a8  2**2
                  CONTENTS, ALLOC, LOAD, DATA
  7 .fini_array   00000004  080039b0  080039b0  000139b0  2**2
                  CONTENTS, ALLOC, LOAD, DATA
  8 .data         00000074  20000000  080039b4  00020000  2**2
                  CONTENTS, ALLOC, LOAD, DATA
  9 .bss          00000180  20000074  08003a28  00020074  2**2
                  ALLOC
 10 ._user_heap_stack 00000604  200001f4  08003a28  000201f4  2**0
                  ALLOC
 11 .ARM.attributes 00000028  00000000  00000000  00020074  2**0
                  CONTENTS, READONLY
 12 .debug_info   0000e187  00000000  00000000  0002009c  2**0
                  CONTENTS, READONLY, DEBUGGING
 13 .debug_abbrev 0000248d  00000000  00000000  0002e223  2**0
                  CONTENTS, READONLY, DEBUGGING
 14 .debug_aranges 00000e00  00000000  00000000  000306b0  2**3
                  CONTENTS, READONLY, DEBUGGING
 15 .debug_ranges 00000cf8  00000000  00000000  000314b0  2**3
                  CONTENTS, READONLY, DEBUGGING
 16 .debug_macro  00018517  00000000  00000000  000321a8  2**0
                  CONTENTS, READONLY, DEBUGGING
 17 .debug_line   0000a8e9  00000000  00000000  0004a6bf  2**0
                  CONTENTS, READONLY, DEBUGGING
 18 .debug_str    000824fe  00000000  00000000  00054fa8  2**0
                  CONTENTS, READONLY, DEBUGGING
 19 .comment      0000007b  00000000  00000000  000d74a6  2**0
                  CONTENTS, READONLY
 20 .debug_frame  000034bc  00000000  00000000  000d7524  2**2
                  CONTENTS, READONLY, DEBUGGING

Disassembly of section .text:

080000c0 <__do_global_dtors_aux>:
 80000c0:	b510      	push	{r4, lr}
 80000c2:	4c06      	ldr	r4, [pc, #24]	; (80000dc <__do_global_dtors_aux+0x1c>)
 80000c4:	7823      	ldrb	r3, [r4, #0]
 80000c6:	2b00      	cmp	r3, #0
 80000c8:	d107      	bne.n	80000da <__do_global_dtors_aux+0x1a>
 80000ca:	4b05      	ldr	r3, [pc, #20]	; (80000e0 <__do_global_dtors_aux+0x20>)
 80000cc:	2b00      	cmp	r3, #0
 80000ce:	d002      	beq.n	80000d6 <__do_global_dtors_aux+0x16>
 80000d0:	4804      	ldr	r0, [pc, #16]	; (80000e4 <__do_global_dtors_aux+0x24>)
 80000d2:	e000      	b.n	80000d6 <__do_global_dtors_aux+0x16>
 80000d4:	bf00      	nop
 80000d6:	2301      	movs	r3, #1
 80000d8:	7023      	strb	r3, [r4, #0]
 80000da:	bd10      	pop	{r4, pc}
 80000dc:	20000074 	.word	0x20000074
 80000e0:	00000000 	.word	0x00000000
 80000e4:	08003938 	.word	0x08003938

080000e8 <frame_dummy>:
 80000e8:	4b04      	ldr	r3, [pc, #16]	; (80000fc <frame_dummy+0x14>)
 80000ea:	b510      	push	{r4, lr}
 80000ec:	2b00      	cmp	r3, #0
 80000ee:	d003      	beq.n	80000f8 <frame_dummy+0x10>
 80000f0:	4903      	ldr	r1, [pc, #12]	; (8000100 <frame_dummy+0x18>)
 80000f2:	4804      	ldr	r0, [pc, #16]	; (8000104 <frame_dummy+0x1c>)
 80000f4:	e000      	b.n	80000f8 <frame_dummy+0x10>
 80000f6:	bf00      	nop
 80000f8:	bd10      	pop	{r4, pc}
 80000fa:	46c0      	nop			; (mov r8, r8)
 80000fc:	00000000 	.word	0x00000000
 8000100:	20000078 	.word	0x20000078
 8000104:	08003938 	.word	0x08003938

08000108 <__udivsi3>:
 8000108:	2200      	movs	r2, #0
 800010a:	0843      	lsrs	r3, r0, #1
 800010c:	428b      	cmp	r3, r1
 800010e:	d374      	bcc.n	80001fa <__udivsi3+0xf2>
 8000110:	0903      	lsrs	r3, r0, #4
 8000112:	428b      	cmp	r3, r1
 8000114:	d35f      	bcc.n	80001d6 <__udivsi3+0xce>
 8000116:	0a03      	lsrs	r3, r0, #8
 8000118:	428b      	cmp	r3, r1
 800011a:	d344      	bcc.n	80001a6 <__udivsi3+0x9e>
 800011c:	0b03      	lsrs	r3, r0, #12
 800011e:	428b      	cmp	r3, r1
 8000120:	d328      	bcc.n	8000174 <__udivsi3+0x6c>
 8000122:	0c03      	lsrs	r3, r0, #16
 8000124:	428b      	cmp	r3, r1
 8000126:	d30d      	bcc.n	8000144 <__udivsi3+0x3c>
 8000128:	22ff      	movs	r2, #255	; 0xff
 800012a:	0209      	lsls	r1, r1, #8
 800012c:	ba12      	rev	r2, r2
 800012e:	0c03      	lsrs	r3, r0, #16
 8000130:	428b      	cmp	r3, r1
 8000132:	d302      	bcc.n	800013a <__udivsi3+0x32>
 8000134:	1212      	asrs	r2, r2, #8
 8000136:	0209      	lsls	r1, r1, #8
 8000138:	d065      	beq.n	8000206 <__udivsi3+0xfe>
 800013a:	0b03      	lsrs	r3, r0, #12
 800013c:	428b      	cmp	r3, r1
 800013e:	d319      	bcc.n	8000174 <__udivsi3+0x6c>
 8000140:	e000      	b.n	8000144 <__udivsi3+0x3c>
 8000142:	0a09      	lsrs	r1, r1, #8
 8000144:	0bc3      	lsrs	r3, r0, #15
 8000146:	428b      	cmp	r3, r1
 8000148:	d301      	bcc.n	800014e <__udivsi3+0x46>
 800014a:	03cb      	lsls	r3, r1, #15
 800014c:	1ac0      	subs	r0, r0, r3
 800014e:	4152      	adcs	r2, r2
 8000150:	0b83      	lsrs	r3, r0, #14
 8000152:	428b      	cmp	r3, r1
 8000154:	d301      	bcc.n	800015a <__udivsi3+0x52>
 8000156:	038b      	lsls	r3, r1, #14
 8000158:	1ac0      	subs	r0, r0, r3
 800015a:	4152      	adcs	r2, r2
 800015c:	0b43      	lsrs	r3, r0, #13
 800015e:	428b      	cmp	r3, r1
 8000160:	d301      	bcc.n	8000166 <__udivsi3+0x5e>
 8000162:	034b      	lsls	r3, r1, #13
 8000164:	1ac0      	subs	r0, r0, r3
 8000166:	4152      	adcs	r2, r2
 8000168:	0b03      	lsrs	r3, r0, #12
 800016a:	428b      	cmp	r3, r1
 800016c:	d301      	bcc.n	8000172 <__udivsi3+0x6a>
 800016e:	030b      	lsls	r3, r1, #12
 8000170:	1ac0      	subs	r0, r0, r3
 8000172:	4152      	adcs	r2, r2
 8000174:	0ac3      	lsrs	r3, r0, #11
 8000176:	428b      	cmp	r3, r1
 8000178:	d301      	bcc.n	800017e <__udivsi3+0x76>
 800017a:	02cb      	lsls	r3, r1, #11
 800017c:	1ac0      	subs	r0, r0, r3
 800017e:	4152      	adcs	r2, r2
 8000180:	0a83      	lsrs	r3, r0, #10
 8000182:	428b      	cmp	r3, r1
 8000184:	d301      	bcc.n	800018a <__udivsi3+0x82>
 8000186:	028b      	lsls	r3, r1, #10
 8000188:	1ac0      	subs	r0, r0, r3
 800018a:	4152      	adcs	r2, r2
 800018c:	0a43      	lsrs	r3, r0, #9
 800018e:	428b      	cmp	r3, r1
 8000190:	d301      	bcc.n	8000196 <__udivsi3+0x8e>
 8000192:	024b      	lsls	r3, r1, #9
 8000194:	1ac0      	subs	r0, r0, r3
 8000196:	4152      	adcs	r2, r2
 8000198:	0a03      	lsrs	r3, r0, #8
 800019a:	428b      	cmp	r3, r1
 800019c:	d301      	bcc.n	80001a2 <__udivsi3+0x9a>
 800019e:	020b      	lsls	r3, r1, #8
 80001a0:	1ac0      	subs	r0, r0, r3
 80001a2:	4152      	adcs	r2, r2
 80001a4:	d2cd      	bcs.n	8000142 <__udivsi3+0x3a>
 80001a6:	09c3      	lsrs	r3, r0, #7
 80001a8:	428b      	cmp	r3, r1
 80001aa:	d301      	bcc.n	80001b0 <__udivsi3+0xa8>
 80001ac:	01cb      	lsls	r3, r1, #7
 80001ae:	1ac0      	subs	r0, r0, r3
 80001b0:	4152      	adcs	r2, r2
 80001b2:	0983      	lsrs	r3, r0, #6
 80001b4:	428b      	cmp	r3, r1
 80001b6:	d301      	bcc.n	80001bc <__udivsi3+0xb4>
 80001b8:	018b      	lsls	r3, r1, #6
 80001ba:	1ac0      	subs	r0, r0, r3
 80001bc:	4152      	adcs	r2, r2
 80001be:	0943      	lsrs	r3, r0, #5
 80001c0:	428b      	cmp	r3, r1
 80001c2:	d301      	bcc.n	80001c8 <__udivsi3+0xc0>
 80001c4:	014b      	lsls	r3, r1, #5
 80001c6:	1ac0      	subs	r0, r0, r3
 80001c8:	4152      	adcs	r2, r2
 80001ca:	0903      	lsrs	r3, r0, #4
 80001cc:	428b      	cmp	r3, r1
 80001ce:	d301      	bcc.n	80001d4 <__udivsi3+0xcc>
 80001d0:	010b      	lsls	r3, r1, #4
 80001d2:	1ac0      	subs	r0, r0, r3
 80001d4:	4152      	adcs	r2, r2
 80001d6:	08c3      	lsrs	r3, r0, #3
 80001d8:	428b      	cmp	r3, r1
 80001da:	d301      	bcc.n	80001e0 <__udivsi3+0xd8>
 80001dc:	00cb      	lsls	r3, r1, #3
 80001de:	1ac0      	subs	r0, r0, r3
 80001e0:	4152      	adcs	r2, r2
 80001e2:	0883      	lsrs	r3, r0, #2
 80001e4:	428b      	cmp	r3, r1
 80001e6:	d301      	bcc.n	80001ec <__udivsi3+0xe4>
 80001e8:	008b      	lsls	r3, r1, #2
 80001ea:	1ac0      	subs	r0, r0, r3
 80001ec:	4152      	adcs	r2, r2
 80001ee:	0843      	lsrs	r3, r0, #1
 80001f0:	428b      	cmp	r3, r1
 80001f2:	d301      	bcc.n	80001f8 <__udivsi3+0xf0>
 80001f4:	004b      	lsls	r3, r1, #1
 80001f6:	1ac0      	subs	r0, r0, r3
 80001f8:	4152      	adcs	r2, r2
 80001fa:	1a41      	subs	r1, r0, r1
 80001fc:	d200      	bcs.n	8000200 <__udivsi3+0xf8>
 80001fe:	4601      	mov	r1, r0
 8000200:	4152      	adcs	r2, r2
 8000202:	4610      	mov	r0, r2
 8000204:	4770      	bx	lr
 8000206:	e7ff      	b.n	8000208 <__udivsi3+0x100>
 8000208:	b501      	push	{r0, lr}
 800020a:	2000      	movs	r0, #0
 800020c:	f000 f806 	bl	800021c <__aeabi_idiv0>
 8000210:	bd02      	pop	{r1, pc}
 8000212:	46c0      	nop			; (mov r8, r8)

08000214 <__aeabi_uidivmod>:
 8000214:	2900      	cmp	r1, #0
 8000216:	d0f7      	beq.n	8000208 <__udivsi3+0x100>
 8000218:	e776      	b.n	8000108 <__udivsi3>
 800021a:	4770      	bx	lr

0800021c <__aeabi_idiv0>:
 800021c:	4770      	bx	lr
 800021e:	46c0      	nop			; (mov r8, r8)

08000220 <main>:
/**
  * @brief  The application entry point.
  * @retval int
  */
int main(void)
{
 8000220:	b590      	push	{r4, r7, lr}
 8000222:	b095      	sub	sp, #84	; 0x54
 8000224:	af00      	add	r7, sp, #0
  

  /* MCU Configuration--------------------------------------------------------*/

  /* Reset of all peripherals, Initializes the Flash interface and the Systick. */
  HAL_Init();
 8000226:	f001 f95f 	bl	80014e8 <HAL_Init>
  /* USER CODE BEGIN Init */

  /* USER CODE END Init */

  /* Configure the system clock */
  SystemClock_Config();
 800022a:	f000 f8cd 	bl	80003c8 <_Z18SystemClock_Configv>
  /* USER CODE BEGIN SysInit */

  /* USER CODE END SysInit */

  /* Initialize all configured peripherals */
  MX_GPIO_Init();
 800022e:	f000 fa17 	bl	8000660 <_ZL12MX_GPIO_Initv>
  MX_TIM2_Init();
 8000232:	f000 f953 	bl	80004dc <_ZL12MX_TIM2_Initv>
  MX_TIM3_Init();
 8000236:	f000 f9b1 	bl	800059c <_ZL12MX_TIM3_Initv>
//  MX_CAN_Init();
  MX_SPI2_Init();
 800023a:	f000 f90d 	bl	8000458 <_ZL12MX_SPI2_Initv>
  /* USER CODE BEGIN 2 */
  recharge = true;
 800023e:	4b5b      	ldr	r3, [pc, #364]	; (80003ac <main+0x18c>)
 8000240:	2201      	movs	r2, #1
 8000242:	701a      	strb	r2, [r3, #0]
  HAL_TIM_Base_Start_IT(&htim2);
 8000244:	4b5a      	ldr	r3, [pc, #360]	; (80003b0 <main+0x190>)
 8000246:	0018      	movs	r0, r3
 8000248:	f002 ff1a 	bl	8003080 <HAL_TIM_Base_Start_IT>

  AUX_MESSAGE_0 aux0;
 800024c:	2410      	movs	r4, #16
 800024e:	193b      	adds	r3, r7, r4
 8000250:	0018      	movs	r0, r3
 8000252:	f000 fd73 	bl	8000d3c <_ZN13AUX_MESSAGE_0C1Ev>
  aux0.SetupReceive(AuxReceive);
 8000256:	4a57      	ldr	r2, [pc, #348]	; (80003b4 <main+0x194>)
 8000258:	193b      	adds	r3, r7, r4
 800025a:	0011      	movs	r1, r2
 800025c:	0018      	movs	r0, r3
 800025e:	f000 fdf9 	bl	8000e54 <_ZN21SUBSYSTEM_DATA_MODULE12SetupReceiveEPFvPS_E>

  SUBSYSTEM_DATA_MODULE::StartCAN(&hcan);
 8000262:	4b55      	ldr	r3, [pc, #340]	; (80003b8 <main+0x198>)
 8000264:	0018      	movs	r0, r3
 8000266:	f000 fe15 	bl	8000e94 <_ZN21SUBSYSTEM_DATA_MODULE8StartCANEP19__CAN_HandleTypeDef>

  uint8_t initializeDAC[3] = {0x70, 0x00, 0x00};	// set supply (5V) as reference
 800026a:	240c      	movs	r4, #12
 800026c:	193b      	adds	r3, r7, r4
 800026e:	2270      	movs	r2, #112	; 0x70
 8000270:	701a      	strb	r2, [r3, #0]
 8000272:	193b      	adds	r3, r7, r4
 8000274:	2200      	movs	r2, #0
 8000276:	705a      	strb	r2, [r3, #1]
 8000278:	193b      	adds	r3, r7, r4
 800027a:	2200      	movs	r2, #0
 800027c:	709a      	strb	r2, [r3, #2]

  HAL_GPIO_WritePin(RegenSS_GPIO_Port, RegenSS_Pin, GPIO_PIN_RESET);
 800027e:	2380      	movs	r3, #128	; 0x80
 8000280:	015b      	lsls	r3, r3, #5
 8000282:	484e      	ldr	r0, [pc, #312]	; (80003bc <main+0x19c>)
 8000284:	2200      	movs	r2, #0
 8000286:	0019      	movs	r1, r3
 8000288:	f001 fe65 	bl	8001f56 <HAL_GPIO_WritePin>
  HAL_SPI_Transmit(&hspi2, &initializeDAC[0], 3, HAL_MAX_DELAY);
 800028c:	2301      	movs	r3, #1
 800028e:	425b      	negs	r3, r3
 8000290:	1939      	adds	r1, r7, r4
 8000292:	484b      	ldr	r0, [pc, #300]	; (80003c0 <main+0x1a0>)
 8000294:	2203      	movs	r2, #3
 8000296:	f002 fc0f 	bl	8002ab8 <HAL_SPI_Transmit>
  HAL_GPIO_WritePin(RegenSS_GPIO_Port, RegenSS_Pin, GPIO_PIN_SET);
 800029a:	2380      	movs	r3, #128	; 0x80
 800029c:	015b      	lsls	r3, r3, #5
 800029e:	4847      	ldr	r0, [pc, #284]	; (80003bc <main+0x19c>)
 80002a0:	2201      	movs	r2, #1
 80002a2:	0019      	movs	r1, r3
 80002a4:	f001 fe57 	bl	8001f56 <HAL_GPIO_WritePin>
  while(HAL_SPI_GetState(&hspi2) != HAL_SPI_STATE_READY);
 80002a8:	4b45      	ldr	r3, [pc, #276]	; (80003c0 <main+0x1a0>)
 80002aa:	0018      	movs	r0, r3
 80002ac:	f002 fd85 	bl	8002dba <HAL_SPI_GetState>
 80002b0:	0003      	movs	r3, r0
 80002b2:	3b01      	subs	r3, #1
 80002b4:	1e5a      	subs	r2, r3, #1
 80002b6:	4193      	sbcs	r3, r2
 80002b8:	b2db      	uxtb	r3, r3
 80002ba:	2b00      	cmp	r3, #0
 80002bc:	d000      	beq.n	80002c0 <main+0xa0>
 80002be:	e7f3      	b.n	80002a8 <main+0x88>
  HAL_GPIO_WritePin(CruiseSS_GPIO_Port, CruiseSS_Pin, GPIO_PIN_RESET);
 80002c0:	2380      	movs	r3, #128	; 0x80
 80002c2:	01db      	lsls	r3, r3, #7
 80002c4:	483d      	ldr	r0, [pc, #244]	; (80003bc <main+0x19c>)
 80002c6:	2200      	movs	r2, #0
 80002c8:	0019      	movs	r1, r3
 80002ca:	f001 fe44 	bl	8001f56 <HAL_GPIO_WritePin>
  HAL_SPI_Transmit(&hspi2, &initializeDAC[0], 3, HAL_MAX_DELAY);
 80002ce:	2301      	movs	r3, #1
 80002d0:	425b      	negs	r3, r3
 80002d2:	220c      	movs	r2, #12
 80002d4:	18b9      	adds	r1, r7, r2
 80002d6:	483a      	ldr	r0, [pc, #232]	; (80003c0 <main+0x1a0>)
 80002d8:	2203      	movs	r2, #3
 80002da:	f002 fbed 	bl	8002ab8 <HAL_SPI_Transmit>
  HAL_GPIO_WritePin(CruiseSS_GPIO_Port, CruiseSS_Pin, GPIO_PIN_SET);
 80002de:	2380      	movs	r3, #128	; 0x80
 80002e0:	01db      	lsls	r3, r3, #7
 80002e2:	4836      	ldr	r0, [pc, #216]	; (80003bc <main+0x19c>)
 80002e4:	2201      	movs	r2, #1
 80002e6:	0019      	movs	r1, r3
 80002e8:	f001 fe35 	bl	8001f56 <HAL_GPIO_WritePin>
  while(HAL_SPI_GetState(&hspi2) != HAL_SPI_STATE_READY);
 80002ec:	4b34      	ldr	r3, [pc, #208]	; (80003c0 <main+0x1a0>)
 80002ee:	0018      	movs	r0, r3
 80002f0:	f002 fd63 	bl	8002dba <HAL_SPI_GetState>
 80002f4:	0003      	movs	r3, r0
 80002f6:	3b01      	subs	r3, #1
 80002f8:	1e5a      	subs	r2, r3, #1
 80002fa:	4193      	sbcs	r3, r2
 80002fc:	b2db      	uxtb	r3, r3
 80002fe:	2b00      	cmp	r3, #0
 8000300:	d000      	beq.n	8000304 <main+0xe4>
 8000302:	e7f3      	b.n	80002ec <main+0xcc>

  uint8_t turnOnDAC[3] = {0x30, 0xFF, 0xF0};
 8000304:	2408      	movs	r4, #8
 8000306:	193b      	adds	r3, r7, r4
 8000308:	4a2e      	ldr	r2, [pc, #184]	; (80003c4 <main+0x1a4>)
 800030a:	8811      	ldrh	r1, [r2, #0]
 800030c:	8019      	strh	r1, [r3, #0]
 800030e:	7892      	ldrb	r2, [r2, #2]
 8000310:	709a      	strb	r2, [r3, #2]
  uint8_t turnOffDAC[3] = {0x40, 0x00, 0x00};
 8000312:	1d3b      	adds	r3, r7, #4
 8000314:	2240      	movs	r2, #64	; 0x40
 8000316:	701a      	strb	r2, [r3, #0]
 8000318:	1d3b      	adds	r3, r7, #4
 800031a:	2200      	movs	r2, #0
 800031c:	705a      	strb	r2, [r3, #1]
 800031e:	1d3b      	adds	r3, r7, #4
 8000320:	2200      	movs	r2, #0
 8000322:	709a      	strb	r2, [r3, #2]

  HAL_GPIO_WritePin(CruiseSS_GPIO_Port, CruiseSS_Pin, GPIO_PIN_RESET);
 8000324:	2380      	movs	r3, #128	; 0x80
 8000326:	01db      	lsls	r3, r3, #7
 8000328:	4824      	ldr	r0, [pc, #144]	; (80003bc <main+0x19c>)
 800032a:	2200      	movs	r2, #0
 800032c:	0019      	movs	r1, r3
 800032e:	f001 fe12 	bl	8001f56 <HAL_GPIO_WritePin>
  HAL_SPI_Transmit(&hspi2, &turnOnDAC[0], 3, HAL_MAX_DELAY);
 8000332:	2301      	movs	r3, #1
 8000334:	425b      	negs	r3, r3
 8000336:	1939      	adds	r1, r7, r4
 8000338:	4821      	ldr	r0, [pc, #132]	; (80003c0 <main+0x1a0>)
 800033a:	2203      	movs	r2, #3
 800033c:	f002 fbbc 	bl	8002ab8 <HAL_SPI_Transmit>
  HAL_GPIO_WritePin(CruiseSS_GPIO_Port, CruiseSS_Pin, GPIO_PIN_SET);
 8000340:	2380      	movs	r3, #128	; 0x80
 8000342:	01db      	lsls	r3, r3, #7
 8000344:	481d      	ldr	r0, [pc, #116]	; (80003bc <main+0x19c>)
 8000346:	2201      	movs	r2, #1
 8000348:	0019      	movs	r1, r3
 800034a:	f001 fe04 	bl	8001f56 <HAL_GPIO_WritePin>
  while(HAL_SPI_GetState(&hspi2) != HAL_SPI_STATE_READY);
 800034e:	4b1c      	ldr	r3, [pc, #112]	; (80003c0 <main+0x1a0>)
 8000350:	0018      	movs	r0, r3
 8000352:	f002 fd32 	bl	8002dba <HAL_SPI_GetState>
 8000356:	0003      	movs	r3, r0
 8000358:	3b01      	subs	r3, #1
 800035a:	1e5a      	subs	r2, r3, #1
 800035c:	4193      	sbcs	r3, r2
 800035e:	b2db      	uxtb	r3, r3
 8000360:	2b00      	cmp	r3, #0
 8000362:	d000      	beq.n	8000366 <main+0x146>
 8000364:	e7f3      	b.n	800034e <main+0x12e>
//			  HAL_SPI_Transmit(&hspi2, &turnOffDAC[0], 3, 10);
//			  HAL_GPIO_WritePin(CruiseSS_GPIO_Port, CruiseSS_Pin, GPIO_PIN_SET);
//		  }
//	  }

	  HAL_GPIO_WritePin(CruiseSS_GPIO_Port, CruiseSS_Pin, GPIO_PIN_RESET);
 8000366:	2380      	movs	r3, #128	; 0x80
 8000368:	01db      	lsls	r3, r3, #7
 800036a:	4814      	ldr	r0, [pc, #80]	; (80003bc <main+0x19c>)
 800036c:	2200      	movs	r2, #0
 800036e:	0019      	movs	r1, r3
 8000370:	f001 fdf1 	bl	8001f56 <HAL_GPIO_WritePin>
	  HAL_SPI_Transmit(&hspi2, turnOnDAC, sizeof(turnOnDAC), HAL_MAX_DELAY);
 8000374:	2301      	movs	r3, #1
 8000376:	425b      	negs	r3, r3
 8000378:	2208      	movs	r2, #8
 800037a:	18b9      	adds	r1, r7, r2
 800037c:	4810      	ldr	r0, [pc, #64]	; (80003c0 <main+0x1a0>)
 800037e:	2203      	movs	r2, #3
 8000380:	f002 fb9a 	bl	8002ab8 <HAL_SPI_Transmit>
	  HAL_GPIO_WritePin(CruiseSS_GPIO_Port, CruiseSS_Pin, GPIO_PIN_SET);
 8000384:	2380      	movs	r3, #128	; 0x80
 8000386:	01db      	lsls	r3, r3, #7
 8000388:	480c      	ldr	r0, [pc, #48]	; (80003bc <main+0x19c>)
 800038a:	2201      	movs	r2, #1
 800038c:	0019      	movs	r1, r3
 800038e:	f001 fde2 	bl	8001f56 <HAL_GPIO_WritePin>
	  while(HAL_SPI_GetState(&hspi2) != HAL_SPI_STATE_READY);
 8000392:	4b0b      	ldr	r3, [pc, #44]	; (80003c0 <main+0x1a0>)
 8000394:	0018      	movs	r0, r3
 8000396:	f002 fd10 	bl	8002dba <HAL_SPI_GetState>
 800039a:	0003      	movs	r3, r0
 800039c:	3b01      	subs	r3, #1
 800039e:	1e5a      	subs	r2, r3, #1
 80003a0:	4193      	sbcs	r3, r2
 80003a2:	b2db      	uxtb	r3, r3
 80003a4:	2b00      	cmp	r3, #0
 80003a6:	d0de      	beq.n	8000366 <main+0x146>
 80003a8:	e7f3      	b.n	8000392 <main+0x172>
 80003aa:	46c0      	nop			; (mov r8, r8)
 80003ac:	2000019d 	.word	0x2000019d
 80003b0:	2000011c 	.word	0x2000011c
 80003b4:	08000941 	.word	0x08000941
 80003b8:	20000090 	.word	0x20000090
 80003bc:	48000400 	.word	0x48000400
 80003c0:	200000b8 	.word	0x200000b8
 80003c4:	08003950 	.word	0x08003950

080003c8 <_Z18SystemClock_Configv>:
/**
  * @brief System Clock Configuration
  * @retval None
  */
void SystemClock_Config(void)
{
 80003c8:	b590      	push	{r4, r7, lr}
 80003ca:	b093      	sub	sp, #76	; 0x4c
 80003cc:	af00      	add	r7, sp, #0
  RCC_OscInitTypeDef RCC_OscInitStruct = {0};
 80003ce:	2414      	movs	r4, #20
 80003d0:	193b      	adds	r3, r7, r4
 80003d2:	0018      	movs	r0, r3
 80003d4:	2334      	movs	r3, #52	; 0x34
 80003d6:	001a      	movs	r2, r3
 80003d8:	2100      	movs	r1, #0
 80003da:	f003 fa5b 	bl	8003894 <memset>
  RCC_ClkInitTypeDef RCC_ClkInitStruct = {0};
 80003de:	1d3b      	adds	r3, r7, #4
 80003e0:	0018      	movs	r0, r3
 80003e2:	2310      	movs	r3, #16
 80003e4:	001a      	movs	r2, r3
 80003e6:	2100      	movs	r1, #0
 80003e8:	f003 fa54 	bl	8003894 <memset>

  /** Initializes the CPU, AHB and APB busses clocks 
  */
  RCC_OscInitStruct.OscillatorType = RCC_OSCILLATORTYPE_HSI;
 80003ec:	0021      	movs	r1, r4
 80003ee:	187b      	adds	r3, r7, r1
 80003f0:	2202      	movs	r2, #2
 80003f2:	601a      	str	r2, [r3, #0]
  RCC_OscInitStruct.HSIState = RCC_HSI_ON;
 80003f4:	187b      	adds	r3, r7, r1
 80003f6:	2201      	movs	r2, #1
 80003f8:	60da      	str	r2, [r3, #12]
  RCC_OscInitStruct.HSICalibrationValue = RCC_HSICALIBRATION_DEFAULT;
 80003fa:	187b      	adds	r3, r7, r1
 80003fc:	2210      	movs	r2, #16
 80003fe:	611a      	str	r2, [r3, #16]
  RCC_OscInitStruct.PLL.PLLState = RCC_PLL_NONE;
 8000400:	187b      	adds	r3, r7, r1
 8000402:	2200      	movs	r2, #0
 8000404:	625a      	str	r2, [r3, #36]	; 0x24
  if (HAL_RCC_OscConfig(&RCC_OscInitStruct) != HAL_OK)
 8000406:	187b      	adds	r3, r7, r1
 8000408:	0018      	movs	r0, r3
 800040a:	f001 fddd 	bl	8001fc8 <HAL_RCC_OscConfig>
 800040e:	0003      	movs	r3, r0
 8000410:	1e5a      	subs	r2, r3, #1
 8000412:	4193      	sbcs	r3, r2
 8000414:	b2db      	uxtb	r3, r3
 8000416:	2b00      	cmp	r3, #0
 8000418:	d001      	beq.n	800041e <_Z18SystemClock_Configv+0x56>
  {
    Error_Handler();
 800041a:	f000 fa9f 	bl	800095c <Error_Handler>
  }
  /** Initializes the CPU, AHB and APB busses clocks 
  */
  RCC_ClkInitStruct.ClockType = RCC_CLOCKTYPE_HCLK|RCC_CLOCKTYPE_SYSCLK
 800041e:	1d3b      	adds	r3, r7, #4
 8000420:	2207      	movs	r2, #7
 8000422:	601a      	str	r2, [r3, #0]
                              |RCC_CLOCKTYPE_PCLK1;
  RCC_ClkInitStruct.SYSCLKSource = RCC_SYSCLKSOURCE_HSI;
 8000424:	1d3b      	adds	r3, r7, #4
 8000426:	2200      	movs	r2, #0
 8000428:	605a      	str	r2, [r3, #4]
  RCC_ClkInitStruct.AHBCLKDivider = RCC_SYSCLK_DIV1;
 800042a:	1d3b      	adds	r3, r7, #4
 800042c:	2200      	movs	r2, #0
 800042e:	609a      	str	r2, [r3, #8]
  RCC_ClkInitStruct.APB1CLKDivider = RCC_HCLK_DIV1;
 8000430:	1d3b      	adds	r3, r7, #4
 8000432:	2200      	movs	r2, #0
 8000434:	60da      	str	r2, [r3, #12]

  if (HAL_RCC_ClockConfig(&RCC_ClkInitStruct, FLASH_LATENCY_0) != HAL_OK)
 8000436:	1d3b      	adds	r3, r7, #4
 8000438:	2100      	movs	r1, #0
 800043a:	0018      	movs	r0, r3
 800043c:	f002 f94a 	bl	80026d4 <HAL_RCC_ClockConfig>
 8000440:	0003      	movs	r3, r0
 8000442:	1e5a      	subs	r2, r3, #1
 8000444:	4193      	sbcs	r3, r2
 8000446:	b2db      	uxtb	r3, r3
 8000448:	2b00      	cmp	r3, #0
 800044a:	d001      	beq.n	8000450 <_Z18SystemClock_Configv+0x88>
  {
    Error_Handler();
 800044c:	f000 fa86 	bl	800095c <Error_Handler>
  }
}
 8000450:	46c0      	nop			; (mov r8, r8)
 8000452:	46bd      	mov	sp, r7
 8000454:	b013      	add	sp, #76	; 0x4c
 8000456:	bd90      	pop	{r4, r7, pc}

08000458 <_ZL12MX_SPI2_Initv>:
  * @brief SPI2 Initialization Function
  * @param None
  * @retval None
  */
static void MX_SPI2_Init(void)
{
 8000458:	b580      	push	{r7, lr}
 800045a:	af00      	add	r7, sp, #0

  /* USER CODE BEGIN SPI2_Init 1 */

  /* USER CODE END SPI2_Init 1 */
  /* SPI2 parameter configuration*/
  hspi2.Instance = SPI2;
 800045c:	4b1d      	ldr	r3, [pc, #116]	; (80004d4 <_ZL12MX_SPI2_Initv+0x7c>)
 800045e:	4a1e      	ldr	r2, [pc, #120]	; (80004d8 <_ZL12MX_SPI2_Initv+0x80>)
 8000460:	601a      	str	r2, [r3, #0]
  hspi2.Init.Mode = SPI_MODE_MASTER;
 8000462:	4b1c      	ldr	r3, [pc, #112]	; (80004d4 <_ZL12MX_SPI2_Initv+0x7c>)
 8000464:	2282      	movs	r2, #130	; 0x82
 8000466:	0052      	lsls	r2, r2, #1
 8000468:	605a      	str	r2, [r3, #4]
  hspi2.Init.Direction = SPI_DIRECTION_2LINES;
 800046a:	4b1a      	ldr	r3, [pc, #104]	; (80004d4 <_ZL12MX_SPI2_Initv+0x7c>)
 800046c:	2200      	movs	r2, #0
 800046e:	609a      	str	r2, [r3, #8]
  hspi2.Init.DataSize = SPI_DATASIZE_8BIT;
 8000470:	4b18      	ldr	r3, [pc, #96]	; (80004d4 <_ZL12MX_SPI2_Initv+0x7c>)
 8000472:	22e0      	movs	r2, #224	; 0xe0
 8000474:	00d2      	lsls	r2, r2, #3
 8000476:	60da      	str	r2, [r3, #12]
  hspi2.Init.CLKPolarity = SPI_POLARITY_HIGH;
 8000478:	4b16      	ldr	r3, [pc, #88]	; (80004d4 <_ZL12MX_SPI2_Initv+0x7c>)
 800047a:	2202      	movs	r2, #2
 800047c:	611a      	str	r2, [r3, #16]
  hspi2.Init.CLKPhase = SPI_PHASE_2EDGE;
 800047e:	4b15      	ldr	r3, [pc, #84]	; (80004d4 <_ZL12MX_SPI2_Initv+0x7c>)
 8000480:	2201      	movs	r2, #1
 8000482:	615a      	str	r2, [r3, #20]
  hspi2.Init.NSS = SPI_NSS_SOFT;
 8000484:	4b13      	ldr	r3, [pc, #76]	; (80004d4 <_ZL12MX_SPI2_Initv+0x7c>)
 8000486:	2280      	movs	r2, #128	; 0x80
 8000488:	0092      	lsls	r2, r2, #2
 800048a:	619a      	str	r2, [r3, #24]
  hspi2.Init.BaudRatePrescaler = SPI_BAUDRATEPRESCALER_8;
 800048c:	4b11      	ldr	r3, [pc, #68]	; (80004d4 <_ZL12MX_SPI2_Initv+0x7c>)
 800048e:	2210      	movs	r2, #16
 8000490:	61da      	str	r2, [r3, #28]
  hspi2.Init.FirstBit = SPI_FIRSTBIT_MSB;
 8000492:	4b10      	ldr	r3, [pc, #64]	; (80004d4 <_ZL12MX_SPI2_Initv+0x7c>)
 8000494:	2200      	movs	r2, #0
 8000496:	621a      	str	r2, [r3, #32]
  hspi2.Init.TIMode = SPI_TIMODE_DISABLE;
 8000498:	4b0e      	ldr	r3, [pc, #56]	; (80004d4 <_ZL12MX_SPI2_Initv+0x7c>)
 800049a:	2200      	movs	r2, #0
 800049c:	625a      	str	r2, [r3, #36]	; 0x24
  hspi2.Init.CRCCalculation = SPI_CRCCALCULATION_DISABLE;
 800049e:	4b0d      	ldr	r3, [pc, #52]	; (80004d4 <_ZL12MX_SPI2_Initv+0x7c>)
 80004a0:	2200      	movs	r2, #0
 80004a2:	629a      	str	r2, [r3, #40]	; 0x28
  hspi2.Init.CRCPolynomial = 7;
 80004a4:	4b0b      	ldr	r3, [pc, #44]	; (80004d4 <_ZL12MX_SPI2_Initv+0x7c>)
 80004a6:	2207      	movs	r2, #7
 80004a8:	62da      	str	r2, [r3, #44]	; 0x2c
  hspi2.Init.CRCLength = SPI_CRC_LENGTH_DATASIZE;
 80004aa:	4b0a      	ldr	r3, [pc, #40]	; (80004d4 <_ZL12MX_SPI2_Initv+0x7c>)
 80004ac:	2200      	movs	r2, #0
 80004ae:	631a      	str	r2, [r3, #48]	; 0x30
  hspi2.Init.NSSPMode = SPI_NSS_PULSE_DISABLE;
 80004b0:	4b08      	ldr	r3, [pc, #32]	; (80004d4 <_ZL12MX_SPI2_Initv+0x7c>)
 80004b2:	2200      	movs	r2, #0
 80004b4:	635a      	str	r2, [r3, #52]	; 0x34
  if (HAL_SPI_Init(&hspi2) != HAL_OK)
 80004b6:	4b07      	ldr	r3, [pc, #28]	; (80004d4 <_ZL12MX_SPI2_Initv+0x7c>)
 80004b8:	0018      	movs	r0, r3
 80004ba:	f002 fa63 	bl	8002984 <HAL_SPI_Init>
 80004be:	0003      	movs	r3, r0
 80004c0:	1e5a      	subs	r2, r3, #1
 80004c2:	4193      	sbcs	r3, r2
 80004c4:	b2db      	uxtb	r3, r3
 80004c6:	2b00      	cmp	r3, #0
 80004c8:	d001      	beq.n	80004ce <_ZL12MX_SPI2_Initv+0x76>
  {
    Error_Handler();
 80004ca:	f000 fa47 	bl	800095c <Error_Handler>
  }
  /* USER CODE BEGIN SPI2_Init 2 */

  /* USER CODE END SPI2_Init 2 */

}
 80004ce:	46c0      	nop			; (mov r8, r8)
 80004d0:	46bd      	mov	sp, r7
 80004d2:	bd80      	pop	{r7, pc}
 80004d4:	200000b8 	.word	0x200000b8
 80004d8:	40003800 	.word	0x40003800

080004dc <_ZL12MX_TIM2_Initv>:
  * @brief TIM2 Initialization Function
  * @param None
  * @retval None
  */
static void MX_TIM2_Init(void)
{
 80004dc:	b580      	push	{r7, lr}
 80004de:	b086      	sub	sp, #24
 80004e0:	af00      	add	r7, sp, #0

  /* USER CODE BEGIN TIM2_Init 0 */

  /* USER CODE END TIM2_Init 0 */

  TIM_ClockConfigTypeDef sClockSourceConfig = {0};
 80004e2:	2308      	movs	r3, #8
 80004e4:	18fb      	adds	r3, r7, r3
 80004e6:	0018      	movs	r0, r3
 80004e8:	2310      	movs	r3, #16
 80004ea:	001a      	movs	r2, r3
 80004ec:	2100      	movs	r1, #0
 80004ee:	f003 f9d1 	bl	8003894 <memset>
  TIM_MasterConfigTypeDef sMasterConfig = {0};
 80004f2:	003b      	movs	r3, r7
 80004f4:	0018      	movs	r0, r3
 80004f6:	2308      	movs	r3, #8
 80004f8:	001a      	movs	r2, r3
 80004fa:	2100      	movs	r1, #0
 80004fc:	f003 f9ca 	bl	8003894 <memset>

  /* USER CODE BEGIN TIM2_Init 1 */

  /* USER CODE END TIM2_Init 1 */
  htim2.Instance = TIM2;
 8000500:	4b24      	ldr	r3, [pc, #144]	; (8000594 <_ZL12MX_TIM2_Initv+0xb8>)
 8000502:	2280      	movs	r2, #128	; 0x80
 8000504:	05d2      	lsls	r2, r2, #23
 8000506:	601a      	str	r2, [r3, #0]
  htim2.Init.Prescaler = 47999;
 8000508:	4b22      	ldr	r3, [pc, #136]	; (8000594 <_ZL12MX_TIM2_Initv+0xb8>)
 800050a:	4a23      	ldr	r2, [pc, #140]	; (8000598 <_ZL12MX_TIM2_Initv+0xbc>)
 800050c:	605a      	str	r2, [r3, #4]
  htim2.Init.CounterMode = TIM_COUNTERMODE_UP;
 800050e:	4b21      	ldr	r3, [pc, #132]	; (8000594 <_ZL12MX_TIM2_Initv+0xb8>)
 8000510:	2200      	movs	r2, #0
 8000512:	609a      	str	r2, [r3, #8]
  htim2.Init.Period = 100;
 8000514:	4b1f      	ldr	r3, [pc, #124]	; (8000594 <_ZL12MX_TIM2_Initv+0xb8>)
 8000516:	2264      	movs	r2, #100	; 0x64
 8000518:	60da      	str	r2, [r3, #12]
  htim2.Init.ClockDivision = TIM_CLOCKDIVISION_DIV1;
 800051a:	4b1e      	ldr	r3, [pc, #120]	; (8000594 <_ZL12MX_TIM2_Initv+0xb8>)
 800051c:	2200      	movs	r2, #0
 800051e:	611a      	str	r2, [r3, #16]
  htim2.Init.AutoReloadPreload = TIM_AUTORELOAD_PRELOAD_DISABLE;
 8000520:	4b1c      	ldr	r3, [pc, #112]	; (8000594 <_ZL12MX_TIM2_Initv+0xb8>)
 8000522:	2200      	movs	r2, #0
 8000524:	619a      	str	r2, [r3, #24]
  if (HAL_TIM_Base_Init(&htim2) != HAL_OK)
 8000526:	4b1b      	ldr	r3, [pc, #108]	; (8000594 <_ZL12MX_TIM2_Initv+0xb8>)
 8000528:	0018      	movs	r0, r3
 800052a:	f002 fd7d 	bl	8003028 <HAL_TIM_Base_Init>
 800052e:	0003      	movs	r3, r0
 8000530:	1e5a      	subs	r2, r3, #1
 8000532:	4193      	sbcs	r3, r2
 8000534:	b2db      	uxtb	r3, r3
 8000536:	2b00      	cmp	r3, #0
 8000538:	d001      	beq.n	800053e <_ZL12MX_TIM2_Initv+0x62>
  {
    Error_Handler();
 800053a:	f000 fa0f 	bl	800095c <Error_Handler>
  }
  sClockSourceConfig.ClockSource = TIM_CLOCKSOURCE_INTERNAL;
 800053e:	2108      	movs	r1, #8
 8000540:	187b      	adds	r3, r7, r1
 8000542:	2280      	movs	r2, #128	; 0x80
 8000544:	0152      	lsls	r2, r2, #5
 8000546:	601a      	str	r2, [r3, #0]
  if (HAL_TIM_ConfigClockSource(&htim2, &sClockSourceConfig) != HAL_OK)
 8000548:	187a      	adds	r2, r7, r1
 800054a:	4b12      	ldr	r3, [pc, #72]	; (8000594 <_ZL12MX_TIM2_Initv+0xb8>)
 800054c:	0011      	movs	r1, r2
 800054e:	0018      	movs	r0, r3
 8000550:	f002 fef8 	bl	8003344 <HAL_TIM_ConfigClockSource>
 8000554:	0003      	movs	r3, r0
 8000556:	1e5a      	subs	r2, r3, #1
 8000558:	4193      	sbcs	r3, r2
 800055a:	b2db      	uxtb	r3, r3
 800055c:	2b00      	cmp	r3, #0
 800055e:	d001      	beq.n	8000564 <_ZL12MX_TIM2_Initv+0x88>
  {
    Error_Handler();
 8000560:	f000 f9fc 	bl	800095c <Error_Handler>
  }
  sMasterConfig.MasterOutputTrigger = TIM_TRGO_RESET;
 8000564:	003b      	movs	r3, r7
 8000566:	2200      	movs	r2, #0
 8000568:	601a      	str	r2, [r3, #0]
  sMasterConfig.MasterSlaveMode = TIM_MASTERSLAVEMODE_DISABLE;
 800056a:	003b      	movs	r3, r7
 800056c:	2200      	movs	r2, #0
 800056e:	605a      	str	r2, [r3, #4]
  if (HAL_TIMEx_MasterConfigSynchronization(&htim2, &sMasterConfig) != HAL_OK)
 8000570:	003a      	movs	r2, r7
 8000572:	4b08      	ldr	r3, [pc, #32]	; (8000594 <_ZL12MX_TIM2_Initv+0xb8>)
 8000574:	0011      	movs	r1, r2
 8000576:	0018      	movs	r0, r3
 8000578:	f003 f8dc 	bl	8003734 <HAL_TIMEx_MasterConfigSynchronization>
 800057c:	0003      	movs	r3, r0
 800057e:	1e5a      	subs	r2, r3, #1
 8000580:	4193      	sbcs	r3, r2
 8000582:	b2db      	uxtb	r3, r3
 8000584:	2b00      	cmp	r3, #0
 8000586:	d001      	beq.n	800058c <_ZL12MX_TIM2_Initv+0xb0>
  {
    Error_Handler();
 8000588:	f000 f9e8 	bl	800095c <Error_Handler>
  }
  /* USER CODE BEGIN TIM2_Init 2 */

  /* USER CODE END TIM2_Init 2 */

}
 800058c:	46c0      	nop			; (mov r8, r8)
 800058e:	46bd      	mov	sp, r7
 8000590:	b006      	add	sp, #24
 8000592:	bd80      	pop	{r7, pc}
 8000594:	2000011c 	.word	0x2000011c
 8000598:	0000bb7f 	.word	0x0000bb7f

0800059c <_ZL12MX_TIM3_Initv>:
  * @brief TIM3 Initialization Function
  * @param None
  * @retval None
  */
static void MX_TIM3_Init(void)
{
 800059c:	b580      	push	{r7, lr}
 800059e:	b086      	sub	sp, #24
 80005a0:	af00      	add	r7, sp, #0

  /* USER CODE BEGIN TIM3_Init 0 */

  /* USER CODE END TIM3_Init 0 */

  TIM_ClockConfigTypeDef sClockSourceConfig = {0};
 80005a2:	2308      	movs	r3, #8
 80005a4:	18fb      	adds	r3, r7, r3
 80005a6:	0018      	movs	r0, r3
 80005a8:	2310      	movs	r3, #16
 80005aa:	001a      	movs	r2, r3
 80005ac:	2100      	movs	r1, #0
 80005ae:	f003 f971 	bl	8003894 <memset>
  TIM_MasterConfigTypeDef sMasterConfig = {0};
 80005b2:	003b      	movs	r3, r7
 80005b4:	0018      	movs	r0, r3
 80005b6:	2308      	movs	r3, #8
 80005b8:	001a      	movs	r2, r3
 80005ba:	2100      	movs	r1, #0
 80005bc:	f003 f96a 	bl	8003894 <memset>

  /* USER CODE BEGIN TIM3_Init 1 */

  /* USER CODE END TIM3_Init 1 */
  htim3.Instance = TIM3;
 80005c0:	4b24      	ldr	r3, [pc, #144]	; (8000654 <_ZL12MX_TIM3_Initv+0xb8>)
 80005c2:	4a25      	ldr	r2, [pc, #148]	; (8000658 <_ZL12MX_TIM3_Initv+0xbc>)
 80005c4:	601a      	str	r2, [r3, #0]
  htim3.Init.Prescaler = 47999;
 80005c6:	4b23      	ldr	r3, [pc, #140]	; (8000654 <_ZL12MX_TIM3_Initv+0xb8>)
 80005c8:	4a24      	ldr	r2, [pc, #144]	; (800065c <_ZL12MX_TIM3_Initv+0xc0>)
 80005ca:	605a      	str	r2, [r3, #4]
  htim3.Init.CounterMode = TIM_COUNTERMODE_UP;
 80005cc:	4b21      	ldr	r3, [pc, #132]	; (8000654 <_ZL12MX_TIM3_Initv+0xb8>)
 80005ce:	2200      	movs	r2, #0
 80005d0:	609a      	str	r2, [r3, #8]
  htim3.Init.Period = 10;
 80005d2:	4b20      	ldr	r3, [pc, #128]	; (8000654 <_ZL12MX_TIM3_Initv+0xb8>)
 80005d4:	220a      	movs	r2, #10
 80005d6:	60da      	str	r2, [r3, #12]
  htim3.Init.ClockDivision = TIM_CLOCKDIVISION_DIV1;
 80005d8:	4b1e      	ldr	r3, [pc, #120]	; (8000654 <_ZL12MX_TIM3_Initv+0xb8>)
 80005da:	2200      	movs	r2, #0
 80005dc:	611a      	str	r2, [r3, #16]
  htim3.Init.AutoReloadPreload = TIM_AUTORELOAD_PRELOAD_DISABLE;
 80005de:	4b1d      	ldr	r3, [pc, #116]	; (8000654 <_ZL12MX_TIM3_Initv+0xb8>)
 80005e0:	2200      	movs	r2, #0
 80005e2:	619a      	str	r2, [r3, #24]
  if (HAL_TIM_Base_Init(&htim3) != HAL_OK)
 80005e4:	4b1b      	ldr	r3, [pc, #108]	; (8000654 <_ZL12MX_TIM3_Initv+0xb8>)
 80005e6:	0018      	movs	r0, r3
 80005e8:	f002 fd1e 	bl	8003028 <HAL_TIM_Base_Init>
 80005ec:	0003      	movs	r3, r0
 80005ee:	1e5a      	subs	r2, r3, #1
 80005f0:	4193      	sbcs	r3, r2
 80005f2:	b2db      	uxtb	r3, r3
 80005f4:	2b00      	cmp	r3, #0
 80005f6:	d001      	beq.n	80005fc <_ZL12MX_TIM3_Initv+0x60>
  {
    Error_Handler();
 80005f8:	f000 f9b0 	bl	800095c <Error_Handler>
  }
  sClockSourceConfig.ClockSource = TIM_CLOCKSOURCE_INTERNAL;
 80005fc:	2108      	movs	r1, #8
 80005fe:	187b      	adds	r3, r7, r1
 8000600:	2280      	movs	r2, #128	; 0x80
 8000602:	0152      	lsls	r2, r2, #5
 8000604:	601a      	str	r2, [r3, #0]
  if (HAL_TIM_ConfigClockSource(&htim3, &sClockSourceConfig) != HAL_OK)
 8000606:	187a      	adds	r2, r7, r1
 8000608:	4b12      	ldr	r3, [pc, #72]	; (8000654 <_ZL12MX_TIM3_Initv+0xb8>)
 800060a:	0011      	movs	r1, r2
 800060c:	0018      	movs	r0, r3
 800060e:	f002 fe99 	bl	8003344 <HAL_TIM_ConfigClockSource>
 8000612:	0003      	movs	r3, r0
 8000614:	1e5a      	subs	r2, r3, #1
 8000616:	4193      	sbcs	r3, r2
 8000618:	b2db      	uxtb	r3, r3
 800061a:	2b00      	cmp	r3, #0
 800061c:	d001      	beq.n	8000622 <_ZL12MX_TIM3_Initv+0x86>
  {
    Error_Handler();
 800061e:	f000 f99d 	bl	800095c <Error_Handler>
  }
  sMasterConfig.MasterOutputTrigger = TIM_TRGO_RESET;
 8000622:	003b      	movs	r3, r7
 8000624:	2200      	movs	r2, #0
 8000626:	601a      	str	r2, [r3, #0]
  sMasterConfig.MasterSlaveMode = TIM_MASTERSLAVEMODE_DISABLE;
 8000628:	003b      	movs	r3, r7
 800062a:	2200      	movs	r2, #0
 800062c:	605a      	str	r2, [r3, #4]
  if (HAL_TIMEx_MasterConfigSynchronization(&htim3, &sMasterConfig) != HAL_OK)
 800062e:	003a      	movs	r2, r7
 8000630:	4b08      	ldr	r3, [pc, #32]	; (8000654 <_ZL12MX_TIM3_Initv+0xb8>)
 8000632:	0011      	movs	r1, r2
 8000634:	0018      	movs	r0, r3
 8000636:	f003 f87d 	bl	8003734 <HAL_TIMEx_MasterConfigSynchronization>
 800063a:	0003      	movs	r3, r0
 800063c:	1e5a      	subs	r2, r3, #1
 800063e:	4193      	sbcs	r3, r2
 8000640:	b2db      	uxtb	r3, r3
 8000642:	2b00      	cmp	r3, #0
 8000644:	d001      	beq.n	800064a <_ZL12MX_TIM3_Initv+0xae>
  {
    Error_Handler();
 8000646:	f000 f989 	bl	800095c <Error_Handler>
  }
  /* USER CODE BEGIN TIM3_Init 2 */

  /* USER CODE END TIM3_Init 2 */

}
 800064a:	46c0      	nop			; (mov r8, r8)
 800064c:	46bd      	mov	sp, r7
 800064e:	b006      	add	sp, #24
 8000650:	bd80      	pop	{r7, pc}
 8000652:	46c0      	nop			; (mov r8, r8)
 8000654:	2000015c 	.word	0x2000015c
 8000658:	40000400 	.word	0x40000400
 800065c:	0000bb7f 	.word	0x0000bb7f

08000660 <_ZL12MX_GPIO_Initv>:
  * @brief GPIO Initialization Function
  * @param None
  * @retval None
  */
static void MX_GPIO_Init(void)
{
 8000660:	b590      	push	{r4, r7, lr}
 8000662:	b089      	sub	sp, #36	; 0x24
 8000664:	af00      	add	r7, sp, #0
  GPIO_InitTypeDef GPIO_InitStruct = {0};
 8000666:	240c      	movs	r4, #12
 8000668:	193b      	adds	r3, r7, r4
 800066a:	0018      	movs	r0, r3
 800066c:	2314      	movs	r3, #20
 800066e:	001a      	movs	r2, r3
 8000670:	2100      	movs	r1, #0
 8000672:	f003 f90f 	bl	8003894 <memset>

  /* GPIO Ports Clock Enable */
  __HAL_RCC_GPIOA_CLK_ENABLE();
 8000676:	4b53      	ldr	r3, [pc, #332]	; (80007c4 <_ZL12MX_GPIO_Initv+0x164>)
 8000678:	695a      	ldr	r2, [r3, #20]
 800067a:	4b52      	ldr	r3, [pc, #328]	; (80007c4 <_ZL12MX_GPIO_Initv+0x164>)
 800067c:	2180      	movs	r1, #128	; 0x80
 800067e:	0289      	lsls	r1, r1, #10
 8000680:	430a      	orrs	r2, r1
 8000682:	615a      	str	r2, [r3, #20]
 8000684:	4b4f      	ldr	r3, [pc, #316]	; (80007c4 <_ZL12MX_GPIO_Initv+0x164>)
 8000686:	695a      	ldr	r2, [r3, #20]
 8000688:	2380      	movs	r3, #128	; 0x80
 800068a:	029b      	lsls	r3, r3, #10
 800068c:	4013      	ands	r3, r2
 800068e:	60bb      	str	r3, [r7, #8]
 8000690:	68bb      	ldr	r3, [r7, #8]
  __HAL_RCC_GPIOC_CLK_ENABLE();
 8000692:	4b4c      	ldr	r3, [pc, #304]	; (80007c4 <_ZL12MX_GPIO_Initv+0x164>)
 8000694:	695a      	ldr	r2, [r3, #20]
 8000696:	4b4b      	ldr	r3, [pc, #300]	; (80007c4 <_ZL12MX_GPIO_Initv+0x164>)
 8000698:	2180      	movs	r1, #128	; 0x80
 800069a:	0309      	lsls	r1, r1, #12
 800069c:	430a      	orrs	r2, r1
 800069e:	615a      	str	r2, [r3, #20]
 80006a0:	4b48      	ldr	r3, [pc, #288]	; (80007c4 <_ZL12MX_GPIO_Initv+0x164>)
 80006a2:	695a      	ldr	r2, [r3, #20]
 80006a4:	2380      	movs	r3, #128	; 0x80
 80006a6:	031b      	lsls	r3, r3, #12
 80006a8:	4013      	ands	r3, r2
 80006aa:	607b      	str	r3, [r7, #4]
 80006ac:	687b      	ldr	r3, [r7, #4]
  __HAL_RCC_GPIOB_CLK_ENABLE();
 80006ae:	4b45      	ldr	r3, [pc, #276]	; (80007c4 <_ZL12MX_GPIO_Initv+0x164>)
 80006b0:	695a      	ldr	r2, [r3, #20]
 80006b2:	4b44      	ldr	r3, [pc, #272]	; (80007c4 <_ZL12MX_GPIO_Initv+0x164>)
 80006b4:	2180      	movs	r1, #128	; 0x80
 80006b6:	02c9      	lsls	r1, r1, #11
 80006b8:	430a      	orrs	r2, r1
 80006ba:	615a      	str	r2, [r3, #20]
 80006bc:	4b41      	ldr	r3, [pc, #260]	; (80007c4 <_ZL12MX_GPIO_Initv+0x164>)
 80006be:	695a      	ldr	r2, [r3, #20]
 80006c0:	2380      	movs	r3, #128	; 0x80
 80006c2:	02db      	lsls	r3, r3, #11
 80006c4:	4013      	ands	r3, r2
 80006c6:	603b      	str	r3, [r7, #0]
 80006c8:	683b      	ldr	r3, [r7, #0]

  /*Configure GPIO pin Output Level */
  HAL_GPIO_WritePin(GPIOA, MCPRE_Pin|MPPTPRE_Pin|MC_COIL_Pin, GPIO_PIN_RESET);
 80006ca:	2390      	movs	r3, #144	; 0x90
 80006cc:	05db      	lsls	r3, r3, #23
 80006ce:	2200      	movs	r2, #0
 80006d0:	21e0      	movs	r1, #224	; 0xe0
 80006d2:	0018      	movs	r0, r3
 80006d4:	f001 fc3f 	bl	8001f56 <HAL_GPIO_WritePin>

  /*Configure GPIO pin Output Level */
  HAL_GPIO_WritePin(MPPT_COIL_GPIO_Port, MPPT_COIL_Pin, GPIO_PIN_RESET);
 80006d8:	4b3b      	ldr	r3, [pc, #236]	; (80007c8 <_ZL12MX_GPIO_Initv+0x168>)
 80006da:	2200      	movs	r2, #0
 80006dc:	2110      	movs	r1, #16
 80006de:	0018      	movs	r0, r3
 80006e0:	f001 fc39 	bl	8001f56 <HAL_GPIO_WritePin>

  /*Configure GPIO pin Output Level */
  HAL_GPIO_WritePin(GPIOB, RegenBrk_Pin|RegenSS_Pin|CruiseSS_Pin, GPIO_PIN_RESET);
 80006e4:	4939      	ldr	r1, [pc, #228]	; (80007cc <_ZL12MX_GPIO_Initv+0x16c>)
 80006e6:	4b3a      	ldr	r3, [pc, #232]	; (80007d0 <_ZL12MX_GPIO_Initv+0x170>)
 80006e8:	2200      	movs	r2, #0
 80006ea:	0018      	movs	r0, r3
 80006ec:	f001 fc33 	bl	8001f56 <HAL_GPIO_WritePin>

  /*Configure GPIO pins : MCPRE_Pin MPPTPRE_Pin MC_COIL_Pin */
  GPIO_InitStruct.Pin = MCPRE_Pin|MPPTPRE_Pin|MC_COIL_Pin;
 80006f0:	193b      	adds	r3, r7, r4
 80006f2:	22e0      	movs	r2, #224	; 0xe0
 80006f4:	601a      	str	r2, [r3, #0]
  GPIO_InitStruct.Mode = GPIO_MODE_OUTPUT_PP;
 80006f6:	193b      	adds	r3, r7, r4
 80006f8:	2201      	movs	r2, #1
 80006fa:	605a      	str	r2, [r3, #4]
  GPIO_InitStruct.Pull = GPIO_NOPULL;
 80006fc:	193b      	adds	r3, r7, r4
 80006fe:	2200      	movs	r2, #0
 8000700:	609a      	str	r2, [r3, #8]
  GPIO_InitStruct.Speed = GPIO_SPEED_FREQ_MEDIUM;
 8000702:	193b      	adds	r3, r7, r4
 8000704:	2201      	movs	r2, #1
 8000706:	60da      	str	r2, [r3, #12]
  HAL_GPIO_Init(GPIOA, &GPIO_InitStruct);
 8000708:	193a      	adds	r2, r7, r4
 800070a:	2390      	movs	r3, #144	; 0x90
 800070c:	05db      	lsls	r3, r3, #23
 800070e:	0011      	movs	r1, r2
 8000710:	0018      	movs	r0, r3
 8000712:	f001 fa8b 	bl	8001c2c <HAL_GPIO_Init>

  /*Configure GPIO pin : MPPT_COIL_Pin */
  GPIO_InitStruct.Pin = MPPT_COIL_Pin;
 8000716:	0021      	movs	r1, r4
 8000718:	187b      	adds	r3, r7, r1
 800071a:	2210      	movs	r2, #16
 800071c:	601a      	str	r2, [r3, #0]
  GPIO_InitStruct.Mode = GPIO_MODE_OUTPUT_PP;
 800071e:	187b      	adds	r3, r7, r1
 8000720:	2201      	movs	r2, #1
 8000722:	605a      	str	r2, [r3, #4]
  GPIO_InitStruct.Pull = GPIO_NOPULL;
 8000724:	187b      	adds	r3, r7, r1
 8000726:	2200      	movs	r2, #0
 8000728:	609a      	str	r2, [r3, #8]
  GPIO_InitStruct.Speed = GPIO_SPEED_FREQ_MEDIUM;
 800072a:	187b      	adds	r3, r7, r1
 800072c:	2201      	movs	r2, #1
 800072e:	60da      	str	r2, [r3, #12]
  HAL_GPIO_Init(MPPT_COIL_GPIO_Port, &GPIO_InitStruct);
 8000730:	000c      	movs	r4, r1
 8000732:	187b      	adds	r3, r7, r1
 8000734:	4a24      	ldr	r2, [pc, #144]	; (80007c8 <_ZL12MX_GPIO_Initv+0x168>)
 8000736:	0019      	movs	r1, r3
 8000738:	0010      	movs	r0, r2
 800073a:	f001 fa77 	bl	8001c2c <HAL_GPIO_Init>

  /*Configure GPIO pin : CHARGE_TRIP_Pin */
  GPIO_InitStruct.Pin = CHARGE_TRIP_Pin;
 800073e:	0021      	movs	r1, r4
 8000740:	187b      	adds	r3, r7, r1
 8000742:	2201      	movs	r2, #1
 8000744:	601a      	str	r2, [r3, #0]
  GPIO_InitStruct.Mode = GPIO_MODE_IT_RISING_FALLING;
 8000746:	187b      	adds	r3, r7, r1
 8000748:	4a22      	ldr	r2, [pc, #136]	; (80007d4 <_ZL12MX_GPIO_Initv+0x174>)
 800074a:	605a      	str	r2, [r3, #4]
  GPIO_InitStruct.Pull = GPIO_PULLUP;
 800074c:	187b      	adds	r3, r7, r1
 800074e:	2201      	movs	r2, #1
 8000750:	609a      	str	r2, [r3, #8]
  HAL_GPIO_Init(CHARGE_TRIP_GPIO_Port, &GPIO_InitStruct);
 8000752:	000c      	movs	r4, r1
 8000754:	187b      	adds	r3, r7, r1
 8000756:	4a1e      	ldr	r2, [pc, #120]	; (80007d0 <_ZL12MX_GPIO_Initv+0x170>)
 8000758:	0019      	movs	r1, r3
 800075a:	0010      	movs	r0, r2
 800075c:	f001 fa66 	bl	8001c2c <HAL_GPIO_Init>

  /*Configure GPIO pins : RegenBrk_Pin RegenSS_Pin CruiseSS_Pin */
  GPIO_InitStruct.Pin = RegenBrk_Pin|RegenSS_Pin|CruiseSS_Pin;
 8000760:	0021      	movs	r1, r4
 8000762:	187b      	adds	r3, r7, r1
 8000764:	4a19      	ldr	r2, [pc, #100]	; (80007cc <_ZL12MX_GPIO_Initv+0x16c>)
 8000766:	601a      	str	r2, [r3, #0]
  GPIO_InitStruct.Mode = GPIO_MODE_OUTPUT_PP;
 8000768:	187b      	adds	r3, r7, r1
 800076a:	2201      	movs	r2, #1
 800076c:	605a      	str	r2, [r3, #4]
  GPIO_InitStruct.Pull = GPIO_NOPULL;
 800076e:	187b      	adds	r3, r7, r1
 8000770:	2200      	movs	r2, #0
 8000772:	609a      	str	r2, [r3, #8]
  GPIO_InitStruct.Speed = GPIO_SPEED_FREQ_MEDIUM;
 8000774:	187b      	adds	r3, r7, r1
 8000776:	2201      	movs	r2, #1
 8000778:	60da      	str	r2, [r3, #12]
  HAL_GPIO_Init(GPIOB, &GPIO_InitStruct);
 800077a:	000c      	movs	r4, r1
 800077c:	187b      	adds	r3, r7, r1
 800077e:	4a14      	ldr	r2, [pc, #80]	; (80007d0 <_ZL12MX_GPIO_Initv+0x170>)
 8000780:	0019      	movs	r1, r3
 8000782:	0010      	movs	r0, r2
 8000784:	f001 fa52 	bl	8001c2c <HAL_GPIO_Init>

  /*Configure GPIO pin : CRUISE_Pin */
  GPIO_InitStruct.Pin = CRUISE_Pin;
 8000788:	0021      	movs	r1, r4
 800078a:	187b      	adds	r3, r7, r1
 800078c:	2280      	movs	r2, #128	; 0x80
 800078e:	00d2      	lsls	r2, r2, #3
 8000790:	601a      	str	r2, [r3, #0]
  GPIO_InitStruct.Mode = GPIO_MODE_IT_RISING_FALLING;
 8000792:	187b      	adds	r3, r7, r1
 8000794:	4a0f      	ldr	r2, [pc, #60]	; (80007d4 <_ZL12MX_GPIO_Initv+0x174>)
 8000796:	605a      	str	r2, [r3, #4]
  GPIO_InitStruct.Pull = GPIO_NOPULL;
 8000798:	187b      	adds	r3, r7, r1
 800079a:	2200      	movs	r2, #0
 800079c:	609a      	str	r2, [r3, #8]
  HAL_GPIO_Init(CRUISE_GPIO_Port, &GPIO_InitStruct);
 800079e:	187b      	adds	r3, r7, r1
 80007a0:	4a0b      	ldr	r2, [pc, #44]	; (80007d0 <_ZL12MX_GPIO_Initv+0x170>)
 80007a2:	0019      	movs	r1, r3
 80007a4:	0010      	movs	r0, r2
 80007a6:	f001 fa41 	bl	8001c2c <HAL_GPIO_Init>

  /* EXTI interrupt init*/
  HAL_NVIC_SetPriority(EXTI0_1_IRQn, 0, 0);
 80007aa:	2200      	movs	r2, #0
 80007ac:	2100      	movs	r1, #0
 80007ae:	2005      	movs	r0, #5
 80007b0:	f001 fa0a 	bl	8001bc8 <HAL_NVIC_SetPriority>
  HAL_NVIC_EnableIRQ(EXTI0_1_IRQn);
 80007b4:	2005      	movs	r0, #5
 80007b6:	f001 fa1c 	bl	8001bf2 <HAL_NVIC_EnableIRQ>

}
 80007ba:	46c0      	nop			; (mov r8, r8)
 80007bc:	46bd      	mov	sp, r7
 80007be:	b009      	add	sp, #36	; 0x24
 80007c0:	bd90      	pop	{r4, r7, pc}
 80007c2:	46c0      	nop			; (mov r8, r8)
 80007c4:	40021000 	.word	0x40021000
 80007c8:	48000800 	.word	0x48000800
 80007cc:	00005002 	.word	0x00005002
 80007d0:	48000400 	.word	0x48000400
 80007d4:	10310000 	.word	0x10310000

080007d8 <HAL_GPIO_EXTI_Callback>:

/* USER CODE BEGIN 4 */
void HAL_GPIO_EXTI_Callback(uint16_t GPIO_Pin)
{
 80007d8:	b580      	push	{r7, lr}
 80007da:	b082      	sub	sp, #8
 80007dc:	af00      	add	r7, sp, #0
 80007de:	0002      	movs	r2, r0
 80007e0:	1dbb      	adds	r3, r7, #6
 80007e2:	801a      	strh	r2, [r3, #0]
	if(GPIO_Pin == CRUISE_Pin)
 80007e4:	1dbb      	adds	r3, r7, #6
 80007e6:	881a      	ldrh	r2, [r3, #0]
 80007e8:	2380      	movs	r3, #128	; 0x80
 80007ea:	00db      	lsls	r3, r3, #3
 80007ec:	429a      	cmp	r2, r3
 80007ee:	d110      	bne.n	8000812 <HAL_GPIO_EXTI_Callback+0x3a>
	{
		cruiseActive = HAL_GPIO_ReadPin(CRUISE_GPIO_Port, CRUISE_Pin);
 80007f0:	2380      	movs	r3, #128	; 0x80
 80007f2:	00db      	lsls	r3, r3, #3
 80007f4:	4a17      	ldr	r2, [pc, #92]	; (8000854 <HAL_GPIO_EXTI_Callback+0x7c>)
 80007f6:	0019      	movs	r1, r3
 80007f8:	0010      	movs	r0, r2
 80007fa:	f001 fb8f 	bl	8001f1c <HAL_GPIO_ReadPin>
 80007fe:	0003      	movs	r3, r0
 8000800:	1e5a      	subs	r2, r3, #1
 8000802:	4193      	sbcs	r3, r2
 8000804:	b2da      	uxtb	r2, r3
 8000806:	4b14      	ldr	r3, [pc, #80]	; (8000858 <HAL_GPIO_EXTI_Callback+0x80>)
 8000808:	701a      	strb	r2, [r3, #0]
		newCruiseInput = true;
 800080a:	4b14      	ldr	r3, [pc, #80]	; (800085c <HAL_GPIO_EXTI_Callback+0x84>)
 800080c:	2201      	movs	r2, #1
 800080e:	701a      	strb	r2, [r3, #0]
		chargeTripActive = !HAL_GPIO_ReadPin(CHARGE_TRIP_GPIO_Port, CHARGE_TRIP_Pin); // charge trip is low true
		if(chargeTripActive) recharge = false;
		else recharge = true;
	}
	else __NOP();
}
 8000810:	e01b      	b.n	800084a <HAL_GPIO_EXTI_Callback+0x72>
	else if(GPIO_Pin == CHARGE_TRIP_Pin)
 8000812:	1dbb      	adds	r3, r7, #6
 8000814:	881b      	ldrh	r3, [r3, #0]
 8000816:	2b01      	cmp	r3, #1
 8000818:	d116      	bne.n	8000848 <HAL_GPIO_EXTI_Callback+0x70>
		chargeTripActive = !HAL_GPIO_ReadPin(CHARGE_TRIP_GPIO_Port, CHARGE_TRIP_Pin); // charge trip is low true
 800081a:	4b0e      	ldr	r3, [pc, #56]	; (8000854 <HAL_GPIO_EXTI_Callback+0x7c>)
 800081c:	2101      	movs	r1, #1
 800081e:	0018      	movs	r0, r3
 8000820:	f001 fb7c 	bl	8001f1c <HAL_GPIO_ReadPin>
 8000824:	0003      	movs	r3, r0
 8000826:	425a      	negs	r2, r3
 8000828:	4153      	adcs	r3, r2
 800082a:	b2da      	uxtb	r2, r3
 800082c:	4b0c      	ldr	r3, [pc, #48]	; (8000860 <HAL_GPIO_EXTI_Callback+0x88>)
 800082e:	701a      	strb	r2, [r3, #0]
		if(chargeTripActive) recharge = false;
 8000830:	4b0b      	ldr	r3, [pc, #44]	; (8000860 <HAL_GPIO_EXTI_Callback+0x88>)
 8000832:	781b      	ldrb	r3, [r3, #0]
 8000834:	2b00      	cmp	r3, #0
 8000836:	d003      	beq.n	8000840 <HAL_GPIO_EXTI_Callback+0x68>
 8000838:	4b0a      	ldr	r3, [pc, #40]	; (8000864 <HAL_GPIO_EXTI_Callback+0x8c>)
 800083a:	2200      	movs	r2, #0
 800083c:	701a      	strb	r2, [r3, #0]
}
 800083e:	e004      	b.n	800084a <HAL_GPIO_EXTI_Callback+0x72>
		else recharge = true;
 8000840:	4b08      	ldr	r3, [pc, #32]	; (8000864 <HAL_GPIO_EXTI_Callback+0x8c>)
 8000842:	2201      	movs	r2, #1
 8000844:	701a      	strb	r2, [r3, #0]
}
 8000846:	e000      	b.n	800084a <HAL_GPIO_EXTI_Callback+0x72>
	else __NOP();
 8000848:	46c0      	nop			; (mov r8, r8)
}
 800084a:	46c0      	nop			; (mov r8, r8)
 800084c:	46bd      	mov	sp, r7
 800084e:	b002      	add	sp, #8
 8000850:	bd80      	pop	{r7, pc}
 8000852:	46c0      	nop			; (mov r8, r8)
 8000854:	48000400 	.word	0x48000400
 8000858:	2000019f 	.word	0x2000019f
 800085c:	2000019c 	.word	0x2000019c
 8000860:	200001a0 	.word	0x200001a0
 8000864:	2000019d 	.word	0x2000019d

08000868 <HAL_TIM_PeriodElapsedCallback>:
void HAL_TIM_PeriodElapsedCallback(TIM_HandleTypeDef *htim)
{
 8000868:	b580      	push	{r7, lr}
 800086a:	b082      	sub	sp, #8
 800086c:	af00      	add	r7, sp, #0
 800086e:	6078      	str	r0, [r7, #4]
	if(htim->Instance == TIM2)
 8000870:	687b      	ldr	r3, [r7, #4]
 8000872:	681a      	ldr	r2, [r3, #0]
 8000874:	2380      	movs	r3, #128	; 0x80
 8000876:	05db      	lsls	r3, r3, #23
 8000878:	429a      	cmp	r2, r3
 800087a:	d142      	bne.n	8000902 <HAL_TIM_PeriodElapsedCallback+0x9a>
	{
		if(recharge)
 800087c:	4b28      	ldr	r3, [pc, #160]	; (8000920 <HAL_TIM_PeriodElapsedCallback+0xb8>)
 800087e:	781b      	ldrb	r3, [r3, #0]
 8000880:	2b00      	cmp	r3, #0
 8000882:	d030      	beq.n	80008e6 <HAL_TIM_PeriodElapsedCallback+0x7e>
		{
			if(tickPrecharge >= 50)
 8000884:	4b27      	ldr	r3, [pc, #156]	; (8000924 <HAL_TIM_PeriodElapsedCallback+0xbc>)
 8000886:	681b      	ldr	r3, [r3, #0]
 8000888:	2b31      	cmp	r3, #49	; 0x31
 800088a:	dd0d      	ble.n	80008a8 <HAL_TIM_PeriodElapsedCallback+0x40>
			{
				recharge = false;
 800088c:	4b24      	ldr	r3, [pc, #144]	; (8000920 <HAL_TIM_PeriodElapsedCallback+0xb8>)
 800088e:	2200      	movs	r2, #0
 8000890:	701a      	strb	r2, [r3, #0]
				tickPrecharge = 0;
 8000892:	4b24      	ldr	r3, [pc, #144]	; (8000924 <HAL_TIM_PeriodElapsedCallback+0xbc>)
 8000894:	2200      	movs	r2, #0
 8000896:	601a      	str	r2, [r3, #0]
				HAL_GPIO_WritePin(GPIOA, MCPRE_Pin|MPPTPRE_Pin, GPIO_PIN_RESET);
 8000898:	2390      	movs	r3, #144	; 0x90
 800089a:	05db      	lsls	r3, r3, #23
 800089c:	2200      	movs	r2, #0
 800089e:	2160      	movs	r1, #96	; 0x60
 80008a0:	0018      	movs	r0, r3
 80008a2:	f001 fb58 	bl	8001f56 <HAL_GPIO_WritePin>
 80008a6:	e004      	b.n	80008b2 <HAL_TIM_PeriodElapsedCallback+0x4a>
			}
			else tickPrecharge++;
 80008a8:	4b1e      	ldr	r3, [pc, #120]	; (8000924 <HAL_TIM_PeriodElapsedCallback+0xbc>)
 80008aa:	681b      	ldr	r3, [r3, #0]
 80008ac:	1c5a      	adds	r2, r3, #1
 80008ae:	4b1d      	ldr	r3, [pc, #116]	; (8000924 <HAL_TIM_PeriodElapsedCallback+0xbc>)
 80008b0:	601a      	str	r2, [r3, #0]
			if(tickCoil >= 48)
 80008b2:	4b1d      	ldr	r3, [pc, #116]	; (8000928 <HAL_TIM_PeriodElapsedCallback+0xc0>)
 80008b4:	681b      	ldr	r3, [r3, #0]
 80008b6:	2b2f      	cmp	r3, #47	; 0x2f
 80008b8:	dd10      	ble.n	80008dc <HAL_TIM_PeriodElapsedCallback+0x74>
			{
				tickCoil = 0;
 80008ba:	4b1b      	ldr	r3, [pc, #108]	; (8000928 <HAL_TIM_PeriodElapsedCallback+0xc0>)
 80008bc:	2200      	movs	r2, #0
 80008be:	601a      	str	r2, [r3, #0]
				HAL_GPIO_WritePin(GPIOA, MC_COIL_Pin, GPIO_PIN_SET);
 80008c0:	2390      	movs	r3, #144	; 0x90
 80008c2:	05db      	lsls	r3, r3, #23
 80008c4:	2201      	movs	r2, #1
 80008c6:	2180      	movs	r1, #128	; 0x80
 80008c8:	0018      	movs	r0, r3
 80008ca:	f001 fb44 	bl	8001f56 <HAL_GPIO_WritePin>
				HAL_GPIO_WritePin(GPIOC, MPPT_COIL_Pin, GPIO_PIN_SET);
 80008ce:	4b17      	ldr	r3, [pc, #92]	; (800092c <HAL_TIM_PeriodElapsedCallback+0xc4>)
 80008d0:	2201      	movs	r2, #1
 80008d2:	2110      	movs	r1, #16
 80008d4:	0018      	movs	r0, r3
 80008d6:	f001 fb3e 	bl	8001f56 <HAL_GPIO_WritePin>
 80008da:	e004      	b.n	80008e6 <HAL_TIM_PeriodElapsedCallback+0x7e>
			}
			else tickCoil++;
 80008dc:	4b12      	ldr	r3, [pc, #72]	; (8000928 <HAL_TIM_PeriodElapsedCallback+0xc0>)
 80008de:	681b      	ldr	r3, [r3, #0]
 80008e0:	1c5a      	adds	r2, r3, #1
 80008e2:	4b11      	ldr	r3, [pc, #68]	; (8000928 <HAL_TIM_PeriodElapsedCallback+0xc0>)
 80008e4:	601a      	str	r2, [r3, #0]
		}
		if(cruiseActive)
 80008e6:	4b12      	ldr	r3, [pc, #72]	; (8000930 <HAL_TIM_PeriodElapsedCallback+0xc8>)
 80008e8:	781b      	ldrb	r3, [r3, #0]
 80008ea:	2b00      	cmp	r3, #0
 80008ec:	d014      	beq.n	8000918 <HAL_TIM_PeriodElapsedCallback+0xb0>
		{
			if(tickRegen >= 10)
 80008ee:	4b11      	ldr	r3, [pc, #68]	; (8000934 <HAL_TIM_PeriodElapsedCallback+0xcc>)
 80008f0:	681b      	ldr	r3, [r3, #0]
 80008f2:	2b09      	cmp	r3, #9
 80008f4:	dc10      	bgt.n	8000918 <HAL_TIM_PeriodElapsedCallback+0xb0>
			{

			}
			else tickRegen++;
 80008f6:	4b0f      	ldr	r3, [pc, #60]	; (8000934 <HAL_TIM_PeriodElapsedCallback+0xcc>)
 80008f8:	681b      	ldr	r3, [r3, #0]
 80008fa:	1c5a      	adds	r2, r3, #1
 80008fc:	4b0d      	ldr	r3, [pc, #52]	; (8000934 <HAL_TIM_PeriodElapsedCallback+0xcc>)
 80008fe:	601a      	str	r2, [r3, #0]
	else if(htim->Instance == TIM3)
	{
		HAL_TIM_Base_Stop_IT(&htim3);
	}
	else __NOP();
}
 8000900:	e00a      	b.n	8000918 <HAL_TIM_PeriodElapsedCallback+0xb0>
	else if(htim->Instance == TIM3)
 8000902:	687b      	ldr	r3, [r7, #4]
 8000904:	681b      	ldr	r3, [r3, #0]
 8000906:	4a0c      	ldr	r2, [pc, #48]	; (8000938 <HAL_TIM_PeriodElapsedCallback+0xd0>)
 8000908:	4293      	cmp	r3, r2
 800090a:	d104      	bne.n	8000916 <HAL_TIM_PeriodElapsedCallback+0xae>
		HAL_TIM_Base_Stop_IT(&htim3);
 800090c:	4b0b      	ldr	r3, [pc, #44]	; (800093c <HAL_TIM_PeriodElapsedCallback+0xd4>)
 800090e:	0018      	movs	r0, r3
 8000910:	f002 fbd8 	bl	80030c4 <HAL_TIM_Base_Stop_IT>
}
 8000914:	e000      	b.n	8000918 <HAL_TIM_PeriodElapsedCallback+0xb0>
	else __NOP();
 8000916:	46c0      	nop			; (mov r8, r8)
}
 8000918:	46c0      	nop			; (mov r8, r8)
 800091a:	46bd      	mov	sp, r7
 800091c:	b002      	add	sp, #8
 800091e:	bd80      	pop	{r7, pc}
 8000920:	2000019d 	.word	0x2000019d
 8000924:	200001a4 	.word	0x200001a4
 8000928:	200001a8 	.word	0x200001a8
 800092c:	48000800 	.word	0x48000800
 8000930:	2000019f 	.word	0x2000019f
 8000934:	200001ac 	.word	0x200001ac
 8000938:	40000400 	.word	0x40000400
 800093c:	2000015c 	.word	0x2000015c

08000940 <_Z10AuxReceiveP21SUBSYSTEM_DATA_MODULE>:
void AuxReceive(SUBSYSTEM_DATA_MODULE*)
{
 8000940:	b580      	push	{r7, lr}
 8000942:	b082      	sub	sp, #8
 8000944:	af00      	add	r7, sp, #0
 8000946:	6078      	str	r0, [r7, #4]
	newCANPacket = true;
 8000948:	4b03      	ldr	r3, [pc, #12]	; (8000958 <_Z10AuxReceiveP21SUBSYSTEM_DATA_MODULE+0x18>)
 800094a:	2201      	movs	r2, #1
 800094c:	701a      	strb	r2, [r3, #0]
}
 800094e:	46c0      	nop			; (mov r8, r8)
 8000950:	46bd      	mov	sp, r7
 8000952:	b002      	add	sp, #8
 8000954:	bd80      	pop	{r7, pc}
 8000956:	46c0      	nop			; (mov r8, r8)
 8000958:	2000019e 	.word	0x2000019e

0800095c <Error_Handler>:
/**
  * @brief  This function is executed in case of error occurrence.
  * @retval None
  */
void Error_Handler(void)
{
 800095c:	b580      	push	{r7, lr}
 800095e:	af00      	add	r7, sp, #0
  /* USER CODE BEGIN Error_Handler_Debug */
  /* User can add his own implementation to report the HAL error return state */

  /* USER CODE END Error_Handler_Debug */
}
 8000960:	46c0      	nop			; (mov r8, r8)
 8000962:	46bd      	mov	sp, r7
 8000964:	bd80      	pop	{r7, pc}
	...

08000968 <HAL_MspInit>:
/* USER CODE END 0 */
/**
  * Initializes the Global MSP.
  */
void HAL_MspInit(void)
{
 8000968:	b580      	push	{r7, lr}
 800096a:	b082      	sub	sp, #8
 800096c:	af00      	add	r7, sp, #0
  /* USER CODE BEGIN MspInit 0 */

  /* USER CODE END MspInit 0 */

  __HAL_RCC_SYSCFG_CLK_ENABLE();
 800096e:	4b0f      	ldr	r3, [pc, #60]	; (80009ac <HAL_MspInit+0x44>)
 8000970:	699a      	ldr	r2, [r3, #24]
 8000972:	4b0e      	ldr	r3, [pc, #56]	; (80009ac <HAL_MspInit+0x44>)
 8000974:	2101      	movs	r1, #1
 8000976:	430a      	orrs	r2, r1
 8000978:	619a      	str	r2, [r3, #24]
 800097a:	4b0c      	ldr	r3, [pc, #48]	; (80009ac <HAL_MspInit+0x44>)
 800097c:	699b      	ldr	r3, [r3, #24]
 800097e:	2201      	movs	r2, #1
 8000980:	4013      	ands	r3, r2
 8000982:	607b      	str	r3, [r7, #4]
 8000984:	687b      	ldr	r3, [r7, #4]
  __HAL_RCC_PWR_CLK_ENABLE();
 8000986:	4b09      	ldr	r3, [pc, #36]	; (80009ac <HAL_MspInit+0x44>)
 8000988:	69da      	ldr	r2, [r3, #28]
 800098a:	4b08      	ldr	r3, [pc, #32]	; (80009ac <HAL_MspInit+0x44>)
 800098c:	2180      	movs	r1, #128	; 0x80
 800098e:	0549      	lsls	r1, r1, #21
 8000990:	430a      	orrs	r2, r1
 8000992:	61da      	str	r2, [r3, #28]
 8000994:	4b05      	ldr	r3, [pc, #20]	; (80009ac <HAL_MspInit+0x44>)
 8000996:	69da      	ldr	r2, [r3, #28]
 8000998:	2380      	movs	r3, #128	; 0x80
 800099a:	055b      	lsls	r3, r3, #21
 800099c:	4013      	ands	r3, r2
 800099e:	603b      	str	r3, [r7, #0]
 80009a0:	683b      	ldr	r3, [r7, #0]
  /* System interrupt init*/

  /* USER CODE BEGIN MspInit 1 */

  /* USER CODE END MspInit 1 */
}
 80009a2:	46c0      	nop			; (mov r8, r8)
 80009a4:	46bd      	mov	sp, r7
 80009a6:	b002      	add	sp, #8
 80009a8:	bd80      	pop	{r7, pc}
 80009aa:	46c0      	nop			; (mov r8, r8)
 80009ac:	40021000 	.word	0x40021000

080009b0 <HAL_CAN_MspInit>:
* This function configures the hardware resources used in this example
* @param hcan: CAN handle pointer
* @retval None
*/
void HAL_CAN_MspInit(CAN_HandleTypeDef* hcan)
{
 80009b0:	b580      	push	{r7, lr}
 80009b2:	b08a      	sub	sp, #40	; 0x28
 80009b4:	af00      	add	r7, sp, #0
 80009b6:	6078      	str	r0, [r7, #4]
  GPIO_InitTypeDef GPIO_InitStruct = {0};
 80009b8:	2314      	movs	r3, #20
 80009ba:	18fb      	adds	r3, r7, r3
 80009bc:	0018      	movs	r0, r3
 80009be:	2314      	movs	r3, #20
 80009c0:	001a      	movs	r2, r3
 80009c2:	2100      	movs	r1, #0
 80009c4:	f002 ff66 	bl	8003894 <memset>
  if(hcan->Instance==CAN)
 80009c8:	687b      	ldr	r3, [r7, #4]
 80009ca:	681b      	ldr	r3, [r3, #0]
 80009cc:	4a1d      	ldr	r2, [pc, #116]	; (8000a44 <HAL_CAN_MspInit+0x94>)
 80009ce:	4293      	cmp	r3, r2
 80009d0:	d133      	bne.n	8000a3a <HAL_CAN_MspInit+0x8a>
  {
  /* USER CODE BEGIN CAN_MspInit 0 */

  /* USER CODE END CAN_MspInit 0 */
    /* Peripheral clock enable */
    __HAL_RCC_CAN1_CLK_ENABLE();
 80009d2:	4b1d      	ldr	r3, [pc, #116]	; (8000a48 <HAL_CAN_MspInit+0x98>)
 80009d4:	69da      	ldr	r2, [r3, #28]
 80009d6:	4b1c      	ldr	r3, [pc, #112]	; (8000a48 <HAL_CAN_MspInit+0x98>)
 80009d8:	2180      	movs	r1, #128	; 0x80
 80009da:	0489      	lsls	r1, r1, #18
 80009dc:	430a      	orrs	r2, r1
 80009de:	61da      	str	r2, [r3, #28]
 80009e0:	4b19      	ldr	r3, [pc, #100]	; (8000a48 <HAL_CAN_MspInit+0x98>)
 80009e2:	69da      	ldr	r2, [r3, #28]
 80009e4:	2380      	movs	r3, #128	; 0x80
 80009e6:	049b      	lsls	r3, r3, #18
 80009e8:	4013      	ands	r3, r2
 80009ea:	613b      	str	r3, [r7, #16]
 80009ec:	693b      	ldr	r3, [r7, #16]
  
    __HAL_RCC_GPIOA_CLK_ENABLE();
 80009ee:	4b16      	ldr	r3, [pc, #88]	; (8000a48 <HAL_CAN_MspInit+0x98>)
 80009f0:	695a      	ldr	r2, [r3, #20]
 80009f2:	4b15      	ldr	r3, [pc, #84]	; (8000a48 <HAL_CAN_MspInit+0x98>)
 80009f4:	2180      	movs	r1, #128	; 0x80
 80009f6:	0289      	lsls	r1, r1, #10
 80009f8:	430a      	orrs	r2, r1
 80009fa:	615a      	str	r2, [r3, #20]
 80009fc:	4b12      	ldr	r3, [pc, #72]	; (8000a48 <HAL_CAN_MspInit+0x98>)
 80009fe:	695a      	ldr	r2, [r3, #20]
 8000a00:	2380      	movs	r3, #128	; 0x80
 8000a02:	029b      	lsls	r3, r3, #10
 8000a04:	4013      	ands	r3, r2
 8000a06:	60fb      	str	r3, [r7, #12]
 8000a08:	68fb      	ldr	r3, [r7, #12]
    /**CAN GPIO Configuration    
    PA11     ------> CAN_RX
    PA12     ------> CAN_TX 
    */
    GPIO_InitStruct.Pin = GPIO_PIN_11|GPIO_PIN_12;
 8000a0a:	2114      	movs	r1, #20
 8000a0c:	187b      	adds	r3, r7, r1
 8000a0e:	22c0      	movs	r2, #192	; 0xc0
 8000a10:	0152      	lsls	r2, r2, #5
 8000a12:	601a      	str	r2, [r3, #0]
    GPIO_InitStruct.Mode = GPIO_MODE_AF_PP;
 8000a14:	187b      	adds	r3, r7, r1
 8000a16:	2202      	movs	r2, #2
 8000a18:	605a      	str	r2, [r3, #4]
    GPIO_InitStruct.Pull = GPIO_NOPULL;
 8000a1a:	187b      	adds	r3, r7, r1
 8000a1c:	2200      	movs	r2, #0
 8000a1e:	609a      	str	r2, [r3, #8]
    GPIO_InitStruct.Speed = GPIO_SPEED_FREQ_HIGH;
 8000a20:	187b      	adds	r3, r7, r1
 8000a22:	2203      	movs	r2, #3
 8000a24:	60da      	str	r2, [r3, #12]
    GPIO_InitStruct.Alternate = GPIO_AF4_CAN;
 8000a26:	187b      	adds	r3, r7, r1
 8000a28:	2204      	movs	r2, #4
 8000a2a:	611a      	str	r2, [r3, #16]
    HAL_GPIO_Init(GPIOA, &GPIO_InitStruct);
 8000a2c:	187a      	adds	r2, r7, r1
 8000a2e:	2390      	movs	r3, #144	; 0x90
 8000a30:	05db      	lsls	r3, r3, #23
 8000a32:	0011      	movs	r1, r2
 8000a34:	0018      	movs	r0, r3
 8000a36:	f001 f8f9 	bl	8001c2c <HAL_GPIO_Init>
  /* USER CODE BEGIN CAN_MspInit 1 */

  /* USER CODE END CAN_MspInit 1 */
  }

}
 8000a3a:	46c0      	nop			; (mov r8, r8)
 8000a3c:	46bd      	mov	sp, r7
 8000a3e:	b00a      	add	sp, #40	; 0x28
 8000a40:	bd80      	pop	{r7, pc}
 8000a42:	46c0      	nop			; (mov r8, r8)
 8000a44:	40006400 	.word	0x40006400
 8000a48:	40021000 	.word	0x40021000

08000a4c <HAL_SPI_MspInit>:
* This function configures the hardware resources used in this example
* @param hspi: SPI handle pointer
* @retval None
*/
void HAL_SPI_MspInit(SPI_HandleTypeDef* hspi)
{
 8000a4c:	b580      	push	{r7, lr}
 8000a4e:	b08a      	sub	sp, #40	; 0x28
 8000a50:	af00      	add	r7, sp, #0
 8000a52:	6078      	str	r0, [r7, #4]
  GPIO_InitTypeDef GPIO_InitStruct = {0};
 8000a54:	2314      	movs	r3, #20
 8000a56:	18fb      	adds	r3, r7, r3
 8000a58:	0018      	movs	r0, r3
 8000a5a:	2314      	movs	r3, #20
 8000a5c:	001a      	movs	r2, r3
 8000a5e:	2100      	movs	r1, #0
 8000a60:	f002 ff18 	bl	8003894 <memset>
  if(hspi->Instance==SPI2)
 8000a64:	687b      	ldr	r3, [r7, #4]
 8000a66:	681b      	ldr	r3, [r3, #0]
 8000a68:	4a1c      	ldr	r2, [pc, #112]	; (8000adc <HAL_SPI_MspInit+0x90>)
 8000a6a:	4293      	cmp	r3, r2
 8000a6c:	d132      	bne.n	8000ad4 <HAL_SPI_MspInit+0x88>
  {
  /* USER CODE BEGIN SPI2_MspInit 0 */

  /* USER CODE END SPI2_MspInit 0 */
    /* Peripheral clock enable */
    __HAL_RCC_SPI2_CLK_ENABLE();
 8000a6e:	4b1c      	ldr	r3, [pc, #112]	; (8000ae0 <HAL_SPI_MspInit+0x94>)
 8000a70:	69da      	ldr	r2, [r3, #28]
 8000a72:	4b1b      	ldr	r3, [pc, #108]	; (8000ae0 <HAL_SPI_MspInit+0x94>)
 8000a74:	2180      	movs	r1, #128	; 0x80
 8000a76:	01c9      	lsls	r1, r1, #7
 8000a78:	430a      	orrs	r2, r1
 8000a7a:	61da      	str	r2, [r3, #28]
 8000a7c:	4b18      	ldr	r3, [pc, #96]	; (8000ae0 <HAL_SPI_MspInit+0x94>)
 8000a7e:	69da      	ldr	r2, [r3, #28]
 8000a80:	2380      	movs	r3, #128	; 0x80
 8000a82:	01db      	lsls	r3, r3, #7
 8000a84:	4013      	ands	r3, r2
 8000a86:	613b      	str	r3, [r7, #16]
 8000a88:	693b      	ldr	r3, [r7, #16]
  
    __HAL_RCC_GPIOB_CLK_ENABLE();
 8000a8a:	4b15      	ldr	r3, [pc, #84]	; (8000ae0 <HAL_SPI_MspInit+0x94>)
 8000a8c:	695a      	ldr	r2, [r3, #20]
 8000a8e:	4b14      	ldr	r3, [pc, #80]	; (8000ae0 <HAL_SPI_MspInit+0x94>)
 8000a90:	2180      	movs	r1, #128	; 0x80
 8000a92:	02c9      	lsls	r1, r1, #11
 8000a94:	430a      	orrs	r2, r1
 8000a96:	615a      	str	r2, [r3, #20]
 8000a98:	4b11      	ldr	r3, [pc, #68]	; (8000ae0 <HAL_SPI_MspInit+0x94>)
 8000a9a:	695a      	ldr	r2, [r3, #20]
 8000a9c:	2380      	movs	r3, #128	; 0x80
 8000a9e:	02db      	lsls	r3, r3, #11
 8000aa0:	4013      	ands	r3, r2
 8000aa2:	60fb      	str	r3, [r7, #12]
 8000aa4:	68fb      	ldr	r3, [r7, #12]
    /**SPI2 GPIO Configuration    
    PB13     ------> SPI2_SCK
    PB15     ------> SPI2_MOSI 
    */
    GPIO_InitStruct.Pin = GPIO_PIN_13|GPIO_PIN_15;
 8000aa6:	2114      	movs	r1, #20
 8000aa8:	187b      	adds	r3, r7, r1
 8000aaa:	22a0      	movs	r2, #160	; 0xa0
 8000aac:	0212      	lsls	r2, r2, #8
 8000aae:	601a      	str	r2, [r3, #0]
    GPIO_InitStruct.Mode = GPIO_MODE_AF_PP;
 8000ab0:	187b      	adds	r3, r7, r1
 8000ab2:	2202      	movs	r2, #2
 8000ab4:	605a      	str	r2, [r3, #4]
    GPIO_InitStruct.Pull = GPIO_NOPULL;
 8000ab6:	187b      	adds	r3, r7, r1
 8000ab8:	2200      	movs	r2, #0
 8000aba:	609a      	str	r2, [r3, #8]
    GPIO_InitStruct.Speed = GPIO_SPEED_FREQ_HIGH;
 8000abc:	187b      	adds	r3, r7, r1
 8000abe:	2203      	movs	r2, #3
 8000ac0:	60da      	str	r2, [r3, #12]
    GPIO_InitStruct.Alternate = GPIO_AF0_SPI2;
 8000ac2:	187b      	adds	r3, r7, r1
 8000ac4:	2200      	movs	r2, #0
 8000ac6:	611a      	str	r2, [r3, #16]
    HAL_GPIO_Init(GPIOB, &GPIO_InitStruct);
 8000ac8:	187b      	adds	r3, r7, r1
 8000aca:	4a06      	ldr	r2, [pc, #24]	; (8000ae4 <HAL_SPI_MspInit+0x98>)
 8000acc:	0019      	movs	r1, r3
 8000ace:	0010      	movs	r0, r2
 8000ad0:	f001 f8ac 	bl	8001c2c <HAL_GPIO_Init>
  /* USER CODE BEGIN SPI2_MspInit 1 */

  /* USER CODE END SPI2_MspInit 1 */
  }

}
 8000ad4:	46c0      	nop			; (mov r8, r8)
 8000ad6:	46bd      	mov	sp, r7
 8000ad8:	b00a      	add	sp, #40	; 0x28
 8000ada:	bd80      	pop	{r7, pc}
 8000adc:	40003800 	.word	0x40003800
 8000ae0:	40021000 	.word	0x40021000
 8000ae4:	48000400 	.word	0x48000400

08000ae8 <HAL_TIM_Base_MspInit>:
* This function configures the hardware resources used in this example
* @param htim_base: TIM_Base handle pointer
* @retval None
*/
void HAL_TIM_Base_MspInit(TIM_HandleTypeDef* htim_base)
{
 8000ae8:	b580      	push	{r7, lr}
 8000aea:	b084      	sub	sp, #16
 8000aec:	af00      	add	r7, sp, #0
 8000aee:	6078      	str	r0, [r7, #4]
  if(htim_base->Instance==TIM2)
 8000af0:	687b      	ldr	r3, [r7, #4]
 8000af2:	681a      	ldr	r2, [r3, #0]
 8000af4:	2380      	movs	r3, #128	; 0x80
 8000af6:	05db      	lsls	r3, r3, #23
 8000af8:	429a      	cmp	r2, r3
 8000afa:	d114      	bne.n	8000b26 <HAL_TIM_Base_MspInit+0x3e>
  {
  /* USER CODE BEGIN TIM2_MspInit 0 */

  /* USER CODE END TIM2_MspInit 0 */
    /* Peripheral clock enable */
    __HAL_RCC_TIM2_CLK_ENABLE();
 8000afc:	4b18      	ldr	r3, [pc, #96]	; (8000b60 <HAL_TIM_Base_MspInit+0x78>)
 8000afe:	69da      	ldr	r2, [r3, #28]
 8000b00:	4b17      	ldr	r3, [pc, #92]	; (8000b60 <HAL_TIM_Base_MspInit+0x78>)
 8000b02:	2101      	movs	r1, #1
 8000b04:	430a      	orrs	r2, r1
 8000b06:	61da      	str	r2, [r3, #28]
 8000b08:	4b15      	ldr	r3, [pc, #84]	; (8000b60 <HAL_TIM_Base_MspInit+0x78>)
 8000b0a:	69db      	ldr	r3, [r3, #28]
 8000b0c:	2201      	movs	r2, #1
 8000b0e:	4013      	ands	r3, r2
 8000b10:	60fb      	str	r3, [r7, #12]
 8000b12:	68fb      	ldr	r3, [r7, #12]
    /* TIM2 interrupt Init */
    HAL_NVIC_SetPriority(TIM2_IRQn, 0, 0);
 8000b14:	2200      	movs	r2, #0
 8000b16:	2100      	movs	r1, #0
 8000b18:	200f      	movs	r0, #15
 8000b1a:	f001 f855 	bl	8001bc8 <HAL_NVIC_SetPriority>
    HAL_NVIC_EnableIRQ(TIM2_IRQn);
 8000b1e:	200f      	movs	r0, #15
 8000b20:	f001 f867 	bl	8001bf2 <HAL_NVIC_EnableIRQ>
  /* USER CODE BEGIN TIM3_MspInit 1 */

  /* USER CODE END TIM3_MspInit 1 */
  }

}
 8000b24:	e018      	b.n	8000b58 <HAL_TIM_Base_MspInit+0x70>
  else if(htim_base->Instance==TIM3)
 8000b26:	687b      	ldr	r3, [r7, #4]
 8000b28:	681b      	ldr	r3, [r3, #0]
 8000b2a:	4a0e      	ldr	r2, [pc, #56]	; (8000b64 <HAL_TIM_Base_MspInit+0x7c>)
 8000b2c:	4293      	cmp	r3, r2
 8000b2e:	d113      	bne.n	8000b58 <HAL_TIM_Base_MspInit+0x70>
    __HAL_RCC_TIM3_CLK_ENABLE();
 8000b30:	4b0b      	ldr	r3, [pc, #44]	; (8000b60 <HAL_TIM_Base_MspInit+0x78>)
 8000b32:	69da      	ldr	r2, [r3, #28]
 8000b34:	4b0a      	ldr	r3, [pc, #40]	; (8000b60 <HAL_TIM_Base_MspInit+0x78>)
 8000b36:	2102      	movs	r1, #2
 8000b38:	430a      	orrs	r2, r1
 8000b3a:	61da      	str	r2, [r3, #28]
 8000b3c:	4b08      	ldr	r3, [pc, #32]	; (8000b60 <HAL_TIM_Base_MspInit+0x78>)
 8000b3e:	69db      	ldr	r3, [r3, #28]
 8000b40:	2202      	movs	r2, #2
 8000b42:	4013      	ands	r3, r2
 8000b44:	60bb      	str	r3, [r7, #8]
 8000b46:	68bb      	ldr	r3, [r7, #8]
    HAL_NVIC_SetPriority(TIM3_IRQn, 0, 0);
 8000b48:	2200      	movs	r2, #0
 8000b4a:	2100      	movs	r1, #0
 8000b4c:	2010      	movs	r0, #16
 8000b4e:	f001 f83b 	bl	8001bc8 <HAL_NVIC_SetPriority>
    HAL_NVIC_EnableIRQ(TIM3_IRQn);
 8000b52:	2010      	movs	r0, #16
 8000b54:	f001 f84d 	bl	8001bf2 <HAL_NVIC_EnableIRQ>
}
 8000b58:	46c0      	nop			; (mov r8, r8)
 8000b5a:	46bd      	mov	sp, r7
 8000b5c:	b004      	add	sp, #16
 8000b5e:	bd80      	pop	{r7, pc}
 8000b60:	40021000 	.word	0x40021000
 8000b64:	40000400 	.word	0x40000400

08000b68 <NMI_Handler>:
/******************************************************************************/
/**
  * @brief This function handles Non maskable interrupt.
  */
void NMI_Handler(void)
{
 8000b68:	b580      	push	{r7, lr}
 8000b6a:	af00      	add	r7, sp, #0

  /* USER CODE END NonMaskableInt_IRQn 0 */
  /* USER CODE BEGIN NonMaskableInt_IRQn 1 */

  /* USER CODE END NonMaskableInt_IRQn 1 */
}
 8000b6c:	46c0      	nop			; (mov r8, r8)
 8000b6e:	46bd      	mov	sp, r7
 8000b70:	bd80      	pop	{r7, pc}

08000b72 <HardFault_Handler>:

/**
  * @brief This function handles Hard fault interrupt.
  */
void HardFault_Handler(void)
{
 8000b72:	b580      	push	{r7, lr}
 8000b74:	af00      	add	r7, sp, #0
  /* USER CODE BEGIN HardFault_IRQn 0 */

  /* USER CODE END HardFault_IRQn 0 */
  while (1)
 8000b76:	e7fe      	b.n	8000b76 <HardFault_Handler+0x4>

08000b78 <SVC_Handler>:

/**
  * @brief This function handles System service call via SWI instruction.
  */
void SVC_Handler(void)
{
 8000b78:	b580      	push	{r7, lr}
 8000b7a:	af00      	add	r7, sp, #0

  /* USER CODE END SVC_IRQn 0 */
  /* USER CODE BEGIN SVC_IRQn 1 */

  /* USER CODE END SVC_IRQn 1 */
}
 8000b7c:	46c0      	nop			; (mov r8, r8)
 8000b7e:	46bd      	mov	sp, r7
 8000b80:	bd80      	pop	{r7, pc}

08000b82 <PendSV_Handler>:

/**
  * @brief This function handles Pendable request for system service.
  */
void PendSV_Handler(void)
{
 8000b82:	b580      	push	{r7, lr}
 8000b84:	af00      	add	r7, sp, #0

  /* USER CODE END PendSV_IRQn 0 */
  /* USER CODE BEGIN PendSV_IRQn 1 */

  /* USER CODE END PendSV_IRQn 1 */
}
 8000b86:	46c0      	nop			; (mov r8, r8)
 8000b88:	46bd      	mov	sp, r7
 8000b8a:	bd80      	pop	{r7, pc}

08000b8c <SysTick_Handler>:

/**
  * @brief This function handles System tick timer.
  */
void SysTick_Handler(void)
{
 8000b8c:	b580      	push	{r7, lr}
 8000b8e:	af00      	add	r7, sp, #0
  /* USER CODE BEGIN SysTick_IRQn 0 */

  /* USER CODE END SysTick_IRQn 0 */
  HAL_IncTick();
 8000b90:	f000 fcf2 	bl	8001578 <HAL_IncTick>
  /* USER CODE BEGIN SysTick_IRQn 1 */

  /* USER CODE END SysTick_IRQn 1 */
}
 8000b94:	46c0      	nop			; (mov r8, r8)
 8000b96:	46bd      	mov	sp, r7
 8000b98:	bd80      	pop	{r7, pc}

08000b9a <EXTI0_1_IRQHandler>:

/**
  * @brief This function handles EXTI line 0 and 1 interrupts.
  */
void EXTI0_1_IRQHandler(void)
{
 8000b9a:	b580      	push	{r7, lr}
 8000b9c:	af00      	add	r7, sp, #0
  /* USER CODE BEGIN EXTI0_1_IRQn 0 */

  /* USER CODE END EXTI0_1_IRQn 0 */
  HAL_GPIO_EXTI_IRQHandler(GPIO_PIN_0);
 8000b9e:	2001      	movs	r0, #1
 8000ba0:	f001 f9f6 	bl	8001f90 <HAL_GPIO_EXTI_IRQHandler>
  /* USER CODE BEGIN EXTI0_1_IRQn 1 */

  /* USER CODE END EXTI0_1_IRQn 1 */
}
 8000ba4:	46c0      	nop			; (mov r8, r8)
 8000ba6:	46bd      	mov	sp, r7
 8000ba8:	bd80      	pop	{r7, pc}
	...

08000bac <TIM2_IRQHandler>:

/**
  * @brief This function handles TIM2 global interrupt.
  */
void TIM2_IRQHandler(void)
{
 8000bac:	b580      	push	{r7, lr}
 8000bae:	af00      	add	r7, sp, #0
  /* USER CODE BEGIN TIM2_IRQn 0 */

  /* USER CODE END TIM2_IRQn 0 */
  HAL_TIM_IRQHandler(&htim2);
 8000bb0:	4b03      	ldr	r3, [pc, #12]	; (8000bc0 <TIM2_IRQHandler+0x14>)
 8000bb2:	0018      	movs	r0, r3
 8000bb4:	f002 fab0 	bl	8003118 <HAL_TIM_IRQHandler>
  /* USER CODE BEGIN TIM2_IRQn 1 */

  /* USER CODE END TIM2_IRQn 1 */
}
 8000bb8:	46c0      	nop			; (mov r8, r8)
 8000bba:	46bd      	mov	sp, r7
 8000bbc:	bd80      	pop	{r7, pc}
 8000bbe:	46c0      	nop			; (mov r8, r8)
 8000bc0:	2000011c 	.word	0x2000011c

08000bc4 <TIM3_IRQHandler>:

/**
  * @brief This function handles TIM3 global interrupt.
  */
void TIM3_IRQHandler(void)
{
 8000bc4:	b580      	push	{r7, lr}
 8000bc6:	af00      	add	r7, sp, #0
  /* USER CODE BEGIN TIM3_IRQn 0 */

  /* USER CODE END TIM3_IRQn 0 */
  HAL_TIM_IRQHandler(&htim3);
 8000bc8:	4b03      	ldr	r3, [pc, #12]	; (8000bd8 <TIM3_IRQHandler+0x14>)
 8000bca:	0018      	movs	r0, r3
 8000bcc:	f002 faa4 	bl	8003118 <HAL_TIM_IRQHandler>
  /* USER CODE BEGIN TIM3_IRQn 1 */

  /* USER CODE END TIM3_IRQn 1 */
}
 8000bd0:	46c0      	nop			; (mov r8, r8)
 8000bd2:	46bd      	mov	sp, r7
 8000bd4:	bd80      	pop	{r7, pc}
 8000bd6:	46c0      	nop			; (mov r8, r8)
 8000bd8:	2000015c 	.word	0x2000015c

08000bdc <_getpid>:
void initialise_monitor_handles()
{
}

int _getpid(void)
{
 8000bdc:	b580      	push	{r7, lr}
 8000bde:	af00      	add	r7, sp, #0
	return 1;
 8000be0:	2301      	movs	r3, #1
}
 8000be2:	0018      	movs	r0, r3
 8000be4:	46bd      	mov	sp, r7
 8000be6:	bd80      	pop	{r7, pc}

08000be8 <_kill>:

int _kill(int pid, int sig)
{
 8000be8:	b580      	push	{r7, lr}
 8000bea:	b082      	sub	sp, #8
 8000bec:	af00      	add	r7, sp, #0
 8000bee:	6078      	str	r0, [r7, #4]
 8000bf0:	6039      	str	r1, [r7, #0]
	errno = EINVAL;
 8000bf2:	f002 fe25 	bl	8003840 <__errno>
 8000bf6:	0003      	movs	r3, r0
 8000bf8:	2216      	movs	r2, #22
 8000bfa:	601a      	str	r2, [r3, #0]
	return -1;
 8000bfc:	2301      	movs	r3, #1
 8000bfe:	425b      	negs	r3, r3
}
 8000c00:	0018      	movs	r0, r3
 8000c02:	46bd      	mov	sp, r7
 8000c04:	b002      	add	sp, #8
 8000c06:	bd80      	pop	{r7, pc}

08000c08 <_exit>:

void _exit (int status)
{
 8000c08:	b580      	push	{r7, lr}
 8000c0a:	b082      	sub	sp, #8
 8000c0c:	af00      	add	r7, sp, #0
 8000c0e:	6078      	str	r0, [r7, #4]
	_kill(status, -1);
 8000c10:	2301      	movs	r3, #1
 8000c12:	425a      	negs	r2, r3
 8000c14:	687b      	ldr	r3, [r7, #4]
 8000c16:	0011      	movs	r1, r2
 8000c18:	0018      	movs	r0, r3
 8000c1a:	f7ff ffe5 	bl	8000be8 <_kill>
	while (1) {}		/* Make sure we hang here */
 8000c1e:	e7fe      	b.n	8000c1e <_exit+0x16>

08000c20 <SystemInit>:
  * @brief  Setup the microcontroller system.
  * @param  None
  * @retval None
  */
void SystemInit(void)
{
 8000c20:	b580      	push	{r7, lr}
 8000c22:	af00      	add	r7, sp, #0
                         before branch to main program. This call is made inside
                         the "startup_stm32f0xx.s" file.
                         User can setups the default system clock (System clock source, PLL Multiplier
                         and Divider factors, AHB/APBx prescalers and Flash settings).
   */
}
 8000c24:	46c0      	nop			; (mov r8, r8)
 8000c26:	46bd      	mov	sp, r7
 8000c28:	bd80      	pop	{r7, pc}
	...

08000c2c <Reset_Handler>:

  .section .text.Reset_Handler
  .weak Reset_Handler
  .type Reset_Handler, %function
Reset_Handler:
  ldr   r0, =_estack
 8000c2c:	480d      	ldr	r0, [pc, #52]	; (8000c64 <LoopForever+0x2>)
  mov   sp, r0          /* set stack pointer */
 8000c2e:	4685      	mov	sp, r0

/* Copy the data segment initializers from flash to SRAM */
  ldr r0, =_sdata
 8000c30:	480d      	ldr	r0, [pc, #52]	; (8000c68 <LoopForever+0x6>)
  ldr r1, =_edata
 8000c32:	490e      	ldr	r1, [pc, #56]	; (8000c6c <LoopForever+0xa>)
  ldr r2, =_sidata
 8000c34:	4a0e      	ldr	r2, [pc, #56]	; (8000c70 <LoopForever+0xe>)
  movs r3, #0
 8000c36:	2300      	movs	r3, #0
  b LoopCopyDataInit
 8000c38:	e002      	b.n	8000c40 <LoopCopyDataInit>

08000c3a <CopyDataInit>:

CopyDataInit:
  ldr r4, [r2, r3]
 8000c3a:	58d4      	ldr	r4, [r2, r3]
  str r4, [r0, r3]
 8000c3c:	50c4      	str	r4, [r0, r3]
  adds r3, r3, #4
 8000c3e:	3304      	adds	r3, #4

08000c40 <LoopCopyDataInit>:

LoopCopyDataInit:
  adds r4, r0, r3
 8000c40:	18c4      	adds	r4, r0, r3
  cmp r4, r1
 8000c42:	428c      	cmp	r4, r1
  bcc CopyDataInit
 8000c44:	d3f9      	bcc.n	8000c3a <CopyDataInit>
  
/* Zero fill the bss segment. */
  ldr r2, =_sbss
 8000c46:	4a0b      	ldr	r2, [pc, #44]	; (8000c74 <LoopForever+0x12>)
  ldr r4, =_ebss
 8000c48:	4c0b      	ldr	r4, [pc, #44]	; (8000c78 <LoopForever+0x16>)
  movs r3, #0
 8000c4a:	2300      	movs	r3, #0
  b LoopFillZerobss
 8000c4c:	e001      	b.n	8000c52 <LoopFillZerobss>

08000c4e <FillZerobss>:

FillZerobss:
  str  r3, [r2]
 8000c4e:	6013      	str	r3, [r2, #0]
  adds r2, r2, #4
 8000c50:	3204      	adds	r2, #4

08000c52 <LoopFillZerobss>:

LoopFillZerobss:
  cmp r2, r4
 8000c52:	42a2      	cmp	r2, r4
  bcc FillZerobss
 8000c54:	d3fb      	bcc.n	8000c4e <FillZerobss>

/* Call the clock system intitialization function.*/
  bl  SystemInit
 8000c56:	f7ff ffe3 	bl	8000c20 <SystemInit>
/* Call static constructors */
  bl __libc_init_array
 8000c5a:	f002 fdf7 	bl	800384c <__libc_init_array>
/* Call the application's entry point.*/
  bl main
 8000c5e:	f7ff fadf 	bl	8000220 <main>

08000c62 <LoopForever>:

LoopForever:
    b LoopForever
 8000c62:	e7fe      	b.n	8000c62 <LoopForever>
  ldr   r0, =_estack
 8000c64:	20004000 	.word	0x20004000
  ldr r0, =_sdata
 8000c68:	20000000 	.word	0x20000000
  ldr r1, =_edata
 8000c6c:	20000074 	.word	0x20000074
  ldr r2, =_sidata
 8000c70:	080039b4 	.word	0x080039b4
  ldr r2, =_sbss
 8000c74:	20000074 	.word	0x20000074
  ldr r4, =_ebss
 8000c78:	200001f4 	.word	0x200001f4

08000c7c <ADC1_COMP_IRQHandler>:
 * @retval : None
*/
    .section .text.Default_Handler,"ax",%progbits
Default_Handler:
Infinite_Loop:
  b Infinite_Loop
 8000c7c:	e7fe      	b.n	8000c7c <ADC1_COMP_IRQHandler>

08000c7e <_ZN13AUX_MESSAGE_017dataPacketToArrayE25AUX_MESSAGE_0_DATA_PACKETPh>:

//Private Function Definitions

//Protected Function Definitions
void AUX_MESSAGE_0::dataPacketToArray(AUX_MESSAGE_0_DATA_PACKET input, uint8_t output[NUM_BYTES])
{
 8000c7e:	b590      	push	{r4, r7, lr}
 8000c80:	b085      	sub	sp, #20
 8000c82:	af00      	add	r7, sp, #0
 8000c84:	2408      	movs	r4, #8
 8000c86:	193b      	adds	r3, r7, r4
 8000c88:	6018      	str	r0, [r3, #0]
 8000c8a:	6059      	str	r1, [r3, #4]
 8000c8c:	607a      	str	r2, [r7, #4]
	assert_param(output != nullptr);
	output[0] = 0;
 8000c8e:	687b      	ldr	r3, [r7, #4]
 8000c90:	2200      	movs	r2, #0
 8000c92:	701a      	strb	r2, [r3, #0]
	output[0] |= static_cast<uint32_t>(input.hazardsOn) << 0;
 8000c94:	687b      	ldr	r3, [r7, #4]
 8000c96:	781b      	ldrb	r3, [r3, #0]
 8000c98:	0021      	movs	r1, r4
 8000c9a:	187a      	adds	r2, r7, r1
 8000c9c:	7912      	ldrb	r2, [r2, #4]
 8000c9e:	4313      	orrs	r3, r2
 8000ca0:	b2da      	uxtb	r2, r3
 8000ca2:	687b      	ldr	r3, [r7, #4]
 8000ca4:	701a      	strb	r2, [r3, #0]
	output[0] |= static_cast<uint32_t>(input.headlightsOn) << 1;
 8000ca6:	687b      	ldr	r3, [r7, #4]
 8000ca8:	781a      	ldrb	r2, [r3, #0]
 8000caa:	187b      	adds	r3, r7, r1
 8000cac:	79db      	ldrb	r3, [r3, #7]
 8000cae:	18db      	adds	r3, r3, r3
 8000cb0:	b2db      	uxtb	r3, r3
 8000cb2:	4313      	orrs	r3, r2
 8000cb4:	b2da      	uxtb	r2, r3
 8000cb6:	687b      	ldr	r3, [r7, #4]
 8000cb8:	701a      	strb	r2, [r3, #0]
	output[0] |= static_cast<uint32_t>(input.leftOn) << 2;
 8000cba:	687b      	ldr	r3, [r7, #4]
 8000cbc:	781a      	ldrb	r2, [r3, #0]
 8000cbe:	187b      	adds	r3, r7, r1
 8000cc0:	795b      	ldrb	r3, [r3, #5]
 8000cc2:	009b      	lsls	r3, r3, #2
 8000cc4:	b2db      	uxtb	r3, r3
 8000cc6:	4313      	orrs	r3, r2
 8000cc8:	b2da      	uxtb	r2, r3
 8000cca:	687b      	ldr	r3, [r7, #4]
 8000ccc:	701a      	strb	r2, [r3, #0]
	output[0] |= static_cast<uint32_t>(input.rightOn) << 3;
 8000cce:	687b      	ldr	r3, [r7, #4]
 8000cd0:	781a      	ldrb	r2, [r3, #0]
 8000cd2:	187b      	adds	r3, r7, r1
 8000cd4:	799b      	ldrb	r3, [r3, #6]
 8000cd6:	00db      	lsls	r3, r3, #3
 8000cd8:	b2db      	uxtb	r3, r3
 8000cda:	4313      	orrs	r3, r2
 8000cdc:	b2da      	uxtb	r2, r3
 8000cde:	687b      	ldr	r3, [r7, #4]
 8000ce0:	701a      	strb	r2, [r3, #0]
	output[0] |= static_cast<uint32_t>(input.cplusOn) << 4;
 8000ce2:	687b      	ldr	r3, [r7, #4]
 8000ce4:	781a      	ldrb	r2, [r3, #0]
 8000ce6:	187b      	adds	r3, r7, r1
 8000ce8:	781b      	ldrb	r3, [r3, #0]
 8000cea:	011b      	lsls	r3, r3, #4
 8000cec:	b2db      	uxtb	r3, r3
 8000cee:	4313      	orrs	r3, r2
 8000cf0:	b2da      	uxtb	r2, r3
 8000cf2:	687b      	ldr	r3, [r7, #4]
 8000cf4:	701a      	strb	r2, [r3, #0]
	output[0] |= static_cast<uint32_t>(input.cminusOn) << 5;
 8000cf6:	687b      	ldr	r3, [r7, #4]
 8000cf8:	781a      	ldrb	r2, [r3, #0]
 8000cfa:	187b      	adds	r3, r7, r1
 8000cfc:	785b      	ldrb	r3, [r3, #1]
 8000cfe:	015b      	lsls	r3, r3, #5
 8000d00:	b2db      	uxtb	r3, r3
 8000d02:	4313      	orrs	r3, r2
 8000d04:	b2da      	uxtb	r2, r3
 8000d06:	687b      	ldr	r3, [r7, #4]
 8000d08:	701a      	strb	r2, [r3, #0]
	output[0] |= static_cast<uint32_t>(input.hornOn) << 6;
 8000d0a:	687b      	ldr	r3, [r7, #4]
 8000d0c:	781a      	ldrb	r2, [r3, #0]
 8000d0e:	187b      	adds	r3, r7, r1
 8000d10:	789b      	ldrb	r3, [r3, #2]
 8000d12:	019b      	lsls	r3, r3, #6
 8000d14:	b2db      	uxtb	r3, r3
 8000d16:	4313      	orrs	r3, r2
 8000d18:	b2da      	uxtb	r2, r3
 8000d1a:	687b      	ldr	r3, [r7, #4]
 8000d1c:	701a      	strb	r2, [r3, #0]
	output[0] |= static_cast<uint32_t>(input.regenOn) << 7;
 8000d1e:	687b      	ldr	r3, [r7, #4]
 8000d20:	781a      	ldrb	r2, [r3, #0]
 8000d22:	187b      	adds	r3, r7, r1
 8000d24:	78db      	ldrb	r3, [r3, #3]
 8000d26:	01db      	lsls	r3, r3, #7
 8000d28:	b2db      	uxtb	r3, r3
 8000d2a:	4313      	orrs	r3, r2
 8000d2c:	b2da      	uxtb	r2, r3
 8000d2e:	687b      	ldr	r3, [r7, #4]
 8000d30:	701a      	strb	r2, [r3, #0]
}
 8000d32:	46c0      	nop			; (mov r8, r8)
 8000d34:	46bd      	mov	sp, r7
 8000d36:	b005      	add	sp, #20
 8000d38:	bd90      	pop	{r4, r7, pc}
	...

08000d3c <_ZN13AUX_MESSAGE_0C1Ev>:

	return output;
}

//Public Function Definitions
AUX_MESSAGE_0::AUX_MESSAGE_0():
 8000d3c:	b580      	push	{r7, lr}
 8000d3e:	b082      	sub	sp, #8
 8000d40:	af00      	add	r7, sp, #0
 8000d42:	6078      	str	r0, [r7, #4]
SUBSYSTEM_DATA_MODULE_TEMPLATE_INTERFACE<AUX_MESSAGE_0, AUX_MESSAGE_0_DATA_PACKET>{subsystem_info::AUX0_MSG_ID,subsystem_info::AUX0_MSG_LENGTH, false}
 8000d44:	6878      	ldr	r0, [r7, #4]
 8000d46:	4906      	ldr	r1, [pc, #24]	; (8000d60 <_ZN13AUX_MESSAGE_0C1Ev+0x24>)
 8000d48:	2300      	movs	r3, #0
 8000d4a:	2201      	movs	r2, #1
 8000d4c:	f000 f80c 	bl	8000d68 <_ZN40SUBSYSTEM_DATA_MODULE_TEMPLATE_INTERFACEI13AUX_MESSAGE_025AUX_MESSAGE_0_DATA_PACKETEC1Emhb>
 8000d50:	4a04      	ldr	r2, [pc, #16]	; (8000d64 <_ZN13AUX_MESSAGE_0C1Ev+0x28>)
 8000d52:	687b      	ldr	r3, [r7, #4]
 8000d54:	601a      	str	r2, [r3, #0]
{}
 8000d56:	687b      	ldr	r3, [r7, #4]
 8000d58:	0018      	movs	r0, r3
 8000d5a:	46bd      	mov	sp, r7
 8000d5c:	b002      	add	sp, #8
 8000d5e:	bd80      	pop	{r7, pc}
 8000d60:	000003ff 	.word	0x000003ff
 8000d64:	0800398c 	.word	0x0800398c

08000d68 <_ZN40SUBSYSTEM_DATA_MODULE_TEMPLATE_INTERFACEI13AUX_MESSAGE_025AUX_MESSAGE_0_DATA_PACKETEC1Emhb>:
	        }
	    }
	    return returnData;
	}
protected:
	SUBSYSTEM_DATA_MODULE_TEMPLATE_INTERFACE(uint32_t message_id, uint8_t data_length, bool is_ext_id):
 8000d68:	b590      	push	{r4, r7, lr}
 8000d6a:	b085      	sub	sp, #20
 8000d6c:	af00      	add	r7, sp, #0
 8000d6e:	60f8      	str	r0, [r7, #12]
 8000d70:	60b9      	str	r1, [r7, #8]
 8000d72:	0019      	movs	r1, r3
 8000d74:	1dfb      	adds	r3, r7, #7
 8000d76:	701a      	strb	r2, [r3, #0]
 8000d78:	1dbb      	adds	r3, r7, #6
 8000d7a:	1c0a      	adds	r2, r1, #0
 8000d7c:	701a      	strb	r2, [r3, #0]
		SUBSYSTEM_DATA_MODULE{message_id, data_length, is_ext_id}
 8000d7e:	68f8      	ldr	r0, [r7, #12]
 8000d80:	1dbb      	adds	r3, r7, #6
 8000d82:	781c      	ldrb	r4, [r3, #0]
 8000d84:	1dfb      	adds	r3, r7, #7
 8000d86:	781a      	ldrb	r2, [r3, #0]
 8000d88:	68b9      	ldr	r1, [r7, #8]
 8000d8a:	0023      	movs	r3, r4
 8000d8c:	f000 f836 	bl	8000dfc <_ZN21SUBSYSTEM_DATA_MODULEC1Emhb>
 8000d90:	4a03      	ldr	r2, [pc, #12]	; (8000da0 <_ZN40SUBSYSTEM_DATA_MODULE_TEMPLATE_INTERFACEI13AUX_MESSAGE_025AUX_MESSAGE_0_DATA_PACKETEC1Emhb+0x38>)
 8000d92:	68fb      	ldr	r3, [r7, #12]
 8000d94:	601a      	str	r2, [r3, #0]
		{}
 8000d96:	68fb      	ldr	r3, [r7, #12]
 8000d98:	0018      	movs	r0, r3
 8000d9a:	46bd      	mov	sp, r7
 8000d9c:	b005      	add	sp, #20
 8000d9e:	bd90      	pop	{r4, r7, pc}
 8000da0:	08003998 	.word	0x08003998

08000da4 <_ZN40SUBSYSTEM_DATA_MODULE_TEMPLATE_INTERFACEI13AUX_MESSAGE_025AUX_MESSAGE_0_DATA_PACKETE18fillTransmitBufferEv>:
private:
	virtual void fillTransmitBuffer(void) override
 8000da4:	b590      	push	{r4, r7, lr}
 8000da6:	b083      	sub	sp, #12
 8000da8:	af00      	add	r7, sp, #0
 8000daa:	6078      	str	r0, [r7, #4]
	{
		static_cast<CHILD_OBJ*>(this)->dataPacketToArray(static_cast<CHILD_OBJ*>(this)->txData, this->transmitBuffer);
 8000dac:	687b      	ldr	r3, [r7, #4]
 8000dae:	330a      	adds	r3, #10
 8000db0:	001c      	movs	r4, r3
 8000db2:	687b      	ldr	r3, [r7, #4]
 8000db4:	2235      	movs	r2, #53	; 0x35
 8000db6:	5c99      	ldrb	r1, [r3, r2]
 8000db8:	1898      	adds	r0, r3, r2
 8000dba:	7840      	ldrb	r0, [r0, #1]
 8000dbc:	0200      	lsls	r0, r0, #8
 8000dbe:	4301      	orrs	r1, r0
 8000dc0:	1898      	adds	r0, r3, r2
 8000dc2:	7880      	ldrb	r0, [r0, #2]
 8000dc4:	0400      	lsls	r0, r0, #16
 8000dc6:	4301      	orrs	r1, r0
 8000dc8:	1898      	adds	r0, r3, r2
 8000dca:	78c0      	ldrb	r0, [r0, #3]
 8000dcc:	0600      	lsls	r0, r0, #24
 8000dce:	4301      	orrs	r1, r0
 8000dd0:	2000      	movs	r0, #0
 8000dd2:	0008      	movs	r0, r1
 8000dd4:	189b      	adds	r3, r3, r2
 8000dd6:	791a      	ldrb	r2, [r3, #4]
 8000dd8:	7959      	ldrb	r1, [r3, #5]
 8000dda:	0209      	lsls	r1, r1, #8
 8000ddc:	430a      	orrs	r2, r1
 8000dde:	7999      	ldrb	r1, [r3, #6]
 8000de0:	0409      	lsls	r1, r1, #16
 8000de2:	430a      	orrs	r2, r1
 8000de4:	79db      	ldrb	r3, [r3, #7]
 8000de6:	061b      	lsls	r3, r3, #24
 8000de8:	4313      	orrs	r3, r2
 8000dea:	2100      	movs	r1, #0
 8000dec:	0019      	movs	r1, r3
 8000dee:	0022      	movs	r2, r4
 8000df0:	f7ff ff45 	bl	8000c7e <_ZN13AUX_MESSAGE_017dataPacketToArrayE25AUX_MESSAGE_0_DATA_PACKETPh>
	}
 8000df4:	46c0      	nop			; (mov r8, r8)
 8000df6:	46bd      	mov	sp, r7
 8000df8:	b003      	add	sp, #12
 8000dfa:	bd90      	pop	{r4, r7, pc}

08000dfc <_ZN21SUBSYSTEM_DATA_MODULEC1Emhb>:
}

//Private Function Definitions

//Protected Function Definitions
SUBSYSTEM_DATA_MODULE::SUBSYSTEM_DATA_MODULE(uint32_t message_id, uint8_t data_length, bool is_ext_id):
 8000dfc:	b580      	push	{r7, lr}
 8000dfe:	b084      	sub	sp, #16
 8000e00:	af00      	add	r7, sp, #0
 8000e02:	60f8      	str	r0, [r7, #12]
 8000e04:	60b9      	str	r1, [r7, #8]
 8000e06:	0019      	movs	r1, r3
 8000e08:	1dfb      	adds	r3, r7, #7
 8000e0a:	701a      	strb	r2, [r3, #0]
 8000e0c:	1dbb      	adds	r3, r7, #6
 8000e0e:	1c0a      	adds	r2, r1, #0
 8000e10:	701a      	strb	r2, [r3, #0]
messageIdentifier{message_id}, dataLength{data_length}, isExtID{is_ext_id}, storageFifo{}, rxFuncPtr{nullptr}, isReceiving{false}
 8000e12:	4a0f      	ldr	r2, [pc, #60]	; (8000e50 <_ZN21SUBSYSTEM_DATA_MODULEC1Emhb+0x54>)
 8000e14:	68fb      	ldr	r3, [r7, #12]
 8000e16:	601a      	str	r2, [r3, #0]
 8000e18:	68fb      	ldr	r3, [r7, #12]
 8000e1a:	68ba      	ldr	r2, [r7, #8]
 8000e1c:	605a      	str	r2, [r3, #4]
 8000e1e:	68fb      	ldr	r3, [r7, #12]
 8000e20:	1dfa      	adds	r2, r7, #7
 8000e22:	7812      	ldrb	r2, [r2, #0]
 8000e24:	721a      	strb	r2, [r3, #8]
 8000e26:	68fb      	ldr	r3, [r7, #12]
 8000e28:	1dba      	adds	r2, r7, #6
 8000e2a:	7812      	ldrb	r2, [r2, #0]
 8000e2c:	725a      	strb	r2, [r3, #9]
 8000e2e:	68fb      	ldr	r3, [r7, #12]
 8000e30:	3312      	adds	r3, #18
 8000e32:	0018      	movs	r0, r3
 8000e34:	f000 f8a6 	bl	8000f84 <_ZN11HELPER_FIFOIhLt3ELt8EEC1Ev>
 8000e38:	68fb      	ldr	r3, [r7, #12]
 8000e3a:	2200      	movs	r2, #0
 8000e3c:	631a      	str	r2, [r3, #48]	; 0x30
 8000e3e:	68fb      	ldr	r3, [r7, #12]
 8000e40:	2234      	movs	r2, #52	; 0x34
 8000e42:	2100      	movs	r1, #0
 8000e44:	5499      	strb	r1, [r3, r2]
{}
 8000e46:	68fb      	ldr	r3, [r7, #12]
 8000e48:	0018      	movs	r0, r3
 8000e4a:	46bd      	mov	sp, r7
 8000e4c:	b004      	add	sp, #16
 8000e4e:	bd80      	pop	{r7, pc}
 8000e50:	080039a4 	.word	0x080039a4

08000e54 <_ZN21SUBSYSTEM_DATA_MODULE12SetupReceiveEPFvPS_E>:
{
	return SUBSYSTEM_DATA_MODULE::rxModulesTree.FindElement(message_id);
}

void SUBSYSTEM_DATA_MODULE::SetupReceive(subsystemReceiveCallback rx_func_ptr)
{
 8000e54:	b580      	push	{r7, lr}
 8000e56:	b082      	sub	sp, #8
 8000e58:	af00      	add	r7, sp, #0
 8000e5a:	6078      	str	r0, [r7, #4]
 8000e5c:	6039      	str	r1, [r7, #0]
    this->rxFuncPtr = rx_func_ptr;
 8000e5e:	687b      	ldr	r3, [r7, #4]
 8000e60:	683a      	ldr	r2, [r7, #0]
 8000e62:	631a      	str	r2, [r3, #48]	; 0x30
    //Add node to receive tree if not already receiving
    if(!isReceiving)
 8000e64:	687b      	ldr	r3, [r7, #4]
 8000e66:	2234      	movs	r2, #52	; 0x34
 8000e68:	5c9b      	ldrb	r3, [r3, r2]
 8000e6a:	2201      	movs	r2, #1
 8000e6c:	4053      	eors	r3, r2
 8000e6e:	b2db      	uxtb	r3, r3
 8000e70:	2b00      	cmp	r3, #0
 8000e72:	d009      	beq.n	8000e88 <_ZN21SUBSYSTEM_DATA_MODULE12SetupReceiveEPFvPS_E+0x34>
    {
        SUBSYSTEM_DATA_MODULE::rxModulesTree.AddNode(this);
 8000e74:	687a      	ldr	r2, [r7, #4]
 8000e76:	4b06      	ldr	r3, [pc, #24]	; (8000e90 <_ZN21SUBSYSTEM_DATA_MODULE12SetupReceiveEPFvPS_E+0x3c>)
 8000e78:	0011      	movs	r1, r2
 8000e7a:	0018      	movs	r0, r3
 8000e7c:	f000 f8c7 	bl	800100e <_ZN14RX_BINARY_TREE7AddNodeEP21SUBSYSTEM_DATA_MODULE>
        //TODO: Fix We are currently receiving even if add Node fails.
        isReceiving = true;
 8000e80:	687b      	ldr	r3, [r7, #4]
 8000e82:	2234      	movs	r2, #52	; 0x34
 8000e84:	2101      	movs	r1, #1
 8000e86:	5499      	strb	r1, [r3, r2]
    } 
}
 8000e88:	46c0      	nop			; (mov r8, r8)
 8000e8a:	46bd      	mov	sp, r7
 8000e8c:	b002      	add	sp, #8
 8000e8e:	bd80      	pop	{r7, pc}
 8000e90:	200001b0 	.word	0x200001b0

08000e94 <_ZN21SUBSYSTEM_DATA_MODULE8StartCANEP19__CAN_HandleTypeDef>:
        this->rxFuncPtr(this);
    }
}

void SUBSYSTEM_DATA_MODULE::StartCAN(CAN_HandleTypeDef* in_hcan)
{
 8000e94:	b580      	push	{r7, lr}
 8000e96:	b08c      	sub	sp, #48	; 0x30
 8000e98:	af00      	add	r7, sp, #0
 8000e9a:	6078      	str	r0, [r7, #4]
	hcan = in_hcan;
 8000e9c:	4b37      	ldr	r3, [pc, #220]	; (8000f7c <_ZN21SUBSYSTEM_DATA_MODULE8StartCANEP19__CAN_HandleTypeDef+0xe8>)
 8000e9e:	687a      	ldr	r2, [r7, #4]
 8000ea0:	601a      	str	r2, [r3, #0]
	//Initialize CAN itself
	hcan->Instance = CAN;
 8000ea2:	4b36      	ldr	r3, [pc, #216]	; (8000f7c <_ZN21SUBSYSTEM_DATA_MODULE8StartCANEP19__CAN_HandleTypeDef+0xe8>)
 8000ea4:	681b      	ldr	r3, [r3, #0]
 8000ea6:	4a36      	ldr	r2, [pc, #216]	; (8000f80 <_ZN21SUBSYSTEM_DATA_MODULE8StartCANEP19__CAN_HandleTypeDef+0xec>)
 8000ea8:	601a      	str	r2, [r3, #0]
	hcan->Init.Prescaler = 6;
 8000eaa:	4b34      	ldr	r3, [pc, #208]	; (8000f7c <_ZN21SUBSYSTEM_DATA_MODULE8StartCANEP19__CAN_HandleTypeDef+0xe8>)
 8000eac:	681b      	ldr	r3, [r3, #0]
 8000eae:	2206      	movs	r2, #6
 8000eb0:	605a      	str	r2, [r3, #4]
	//hcan->Init.Mode = CAN_MODE_NORMAL;
	hcan->Init.Mode = CAN_MODE_LOOPBACK;
 8000eb2:	4b32      	ldr	r3, [pc, #200]	; (8000f7c <_ZN21SUBSYSTEM_DATA_MODULE8StartCANEP19__CAN_HandleTypeDef+0xe8>)
 8000eb4:	681b      	ldr	r3, [r3, #0]
 8000eb6:	2280      	movs	r2, #128	; 0x80
 8000eb8:	05d2      	lsls	r2, r2, #23
 8000eba:	609a      	str	r2, [r3, #8]
	hcan->Init.SyncJumpWidth = CAN_SJW_1TQ;
 8000ebc:	4b2f      	ldr	r3, [pc, #188]	; (8000f7c <_ZN21SUBSYSTEM_DATA_MODULE8StartCANEP19__CAN_HandleTypeDef+0xe8>)
 8000ebe:	681b      	ldr	r3, [r3, #0]
 8000ec0:	2200      	movs	r2, #0
 8000ec2:	60da      	str	r2, [r3, #12]
	hcan->Init.TimeSeg1 = CAN_BS1_13TQ;
 8000ec4:	4b2d      	ldr	r3, [pc, #180]	; (8000f7c <_ZN21SUBSYSTEM_DATA_MODULE8StartCANEP19__CAN_HandleTypeDef+0xe8>)
 8000ec6:	681b      	ldr	r3, [r3, #0]
 8000ec8:	22c0      	movs	r2, #192	; 0xc0
 8000eca:	0312      	lsls	r2, r2, #12
 8000ecc:	611a      	str	r2, [r3, #16]
	hcan->Init.TimeSeg2 = CAN_BS2_2TQ;
 8000ece:	4b2b      	ldr	r3, [pc, #172]	; (8000f7c <_ZN21SUBSYSTEM_DATA_MODULE8StartCANEP19__CAN_HandleTypeDef+0xe8>)
 8000ed0:	681b      	ldr	r3, [r3, #0]
 8000ed2:	2280      	movs	r2, #128	; 0x80
 8000ed4:	0352      	lsls	r2, r2, #13
 8000ed6:	615a      	str	r2, [r3, #20]
	hcan->Init.TimeTriggeredMode = DISABLE;
 8000ed8:	4b28      	ldr	r3, [pc, #160]	; (8000f7c <_ZN21SUBSYSTEM_DATA_MODULE8StartCANEP19__CAN_HandleTypeDef+0xe8>)
 8000eda:	681b      	ldr	r3, [r3, #0]
 8000edc:	2200      	movs	r2, #0
 8000ede:	761a      	strb	r2, [r3, #24]
	hcan->Init.AutoBusOff = DISABLE;
 8000ee0:	4b26      	ldr	r3, [pc, #152]	; (8000f7c <_ZN21SUBSYSTEM_DATA_MODULE8StartCANEP19__CAN_HandleTypeDef+0xe8>)
 8000ee2:	681b      	ldr	r3, [r3, #0]
 8000ee4:	2200      	movs	r2, #0
 8000ee6:	765a      	strb	r2, [r3, #25]
	hcan->Init.AutoWakeUp = DISABLE;
 8000ee8:	4b24      	ldr	r3, [pc, #144]	; (8000f7c <_ZN21SUBSYSTEM_DATA_MODULE8StartCANEP19__CAN_HandleTypeDef+0xe8>)
 8000eea:	681b      	ldr	r3, [r3, #0]
 8000eec:	2200      	movs	r2, #0
 8000eee:	769a      	strb	r2, [r3, #26]
	hcan->Init.AutoRetransmission = DISABLE;
 8000ef0:	4b22      	ldr	r3, [pc, #136]	; (8000f7c <_ZN21SUBSYSTEM_DATA_MODULE8StartCANEP19__CAN_HandleTypeDef+0xe8>)
 8000ef2:	681b      	ldr	r3, [r3, #0]
 8000ef4:	2200      	movs	r2, #0
 8000ef6:	76da      	strb	r2, [r3, #27]
	hcan->Init.ReceiveFifoLocked = DISABLE;
 8000ef8:	4b20      	ldr	r3, [pc, #128]	; (8000f7c <_ZN21SUBSYSTEM_DATA_MODULE8StartCANEP19__CAN_HandleTypeDef+0xe8>)
 8000efa:	681b      	ldr	r3, [r3, #0]
 8000efc:	2200      	movs	r2, #0
 8000efe:	771a      	strb	r2, [r3, #28]
	hcan->Init.TransmitFifoPriority = DISABLE;
 8000f00:	4b1e      	ldr	r3, [pc, #120]	; (8000f7c <_ZN21SUBSYSTEM_DATA_MODULE8StartCANEP19__CAN_HandleTypeDef+0xe8>)
 8000f02:	681b      	ldr	r3, [r3, #0]
 8000f04:	2200      	movs	r2, #0
 8000f06:	775a      	strb	r2, [r3, #29]
	if (HAL_CAN_Init(hcan) != HAL_OK)
 8000f08:	4b1c      	ldr	r3, [pc, #112]	; (8000f7c <_ZN21SUBSYSTEM_DATA_MODULE8StartCANEP19__CAN_HandleTypeDef+0xe8>)
 8000f0a:	681b      	ldr	r3, [r3, #0]
 8000f0c:	0018      	movs	r0, r3
 8000f0e:	f000 fb4f 	bl	80015b0 <HAL_CAN_Init>
 8000f12:	0003      	movs	r3, r0
 8000f14:	1e5a      	subs	r2, r3, #1
 8000f16:	4193      	sbcs	r3, r2
 8000f18:	b2db      	uxtb	r3, r3
 8000f1a:	2b00      	cmp	r3, #0
 8000f1c:	d001      	beq.n	8000f22 <_ZN21SUBSYSTEM_DATA_MODULE8StartCANEP19__CAN_HandleTypeDef+0x8e>
	{
	Error_Handler();
 8000f1e:	f7ff fd1d 	bl	800095c <Error_Handler>
	}

	//Initialize a hardware filter that passes everything
	CAN_FilterTypeDef sFilterConfig;
	sFilterConfig.FilterActivation = CAN_FILTER_ENABLE; /*Enable the filter*/
 8000f22:	2108      	movs	r1, #8
 8000f24:	187b      	adds	r3, r7, r1
 8000f26:	2201      	movs	r2, #1
 8000f28:	621a      	str	r2, [r3, #32]
	sFilterConfig.FilterMode = CAN_FILTERMODE_IDMASK; /*Mask mode*/
 8000f2a:	187b      	adds	r3, r7, r1
 8000f2c:	2200      	movs	r2, #0
 8000f2e:	619a      	str	r2, [r3, #24]
	sFilterConfig.FilterMaskIdHigh = 0;
 8000f30:	187b      	adds	r3, r7, r1
 8000f32:	2200      	movs	r2, #0
 8000f34:	609a      	str	r2, [r3, #8]
	sFilterConfig.FilterMaskIdLow = 0; /*Accept everything*/
 8000f36:	187b      	adds	r3, r7, r1
 8000f38:	2200      	movs	r2, #0
 8000f3a:	60da      	str	r2, [r3, #12]
	sFilterConfig.FilterScale = CAN_FILTERSCALE_32BIT; /*One 32-bit filter*/
 8000f3c:	187b      	adds	r3, r7, r1
 8000f3e:	2201      	movs	r2, #1
 8000f40:	61da      	str	r2, [r3, #28]
	sFilterConfig.FilterBank = 0; /*Init bank 0*/
 8000f42:	187b      	adds	r3, r7, r1
 8000f44:	2200      	movs	r2, #0
 8000f46:	615a      	str	r2, [r3, #20]
	sFilterConfig.FilterFIFOAssignment = 0; /*Assign to FIFO 0*/
 8000f48:	187b      	adds	r3, r7, r1
 8000f4a:	2200      	movs	r2, #0
 8000f4c:	611a      	str	r2, [r3, #16]
	HAL_CAN_ConfigFilter(hcan, &sFilterConfig);
 8000f4e:	4b0b      	ldr	r3, [pc, #44]	; (8000f7c <_ZN21SUBSYSTEM_DATA_MODULE8StartCANEP19__CAN_HandleTypeDef+0xe8>)
 8000f50:	681b      	ldr	r3, [r3, #0]
 8000f52:	187a      	adds	r2, r7, r1
 8000f54:	0011      	movs	r1, r2
 8000f56:	0018      	movs	r0, r3
 8000f58:	f000 fc28 	bl	80017ac <HAL_CAN_ConfigFilter>

    //Set Up CAN interrupt receive callback
	HAL_CAN_ActivateNotification(hcan, CAN_IT_RX_FIFO0_MSG_PENDING);
 8000f5c:	4b07      	ldr	r3, [pc, #28]	; (8000f7c <_ZN21SUBSYSTEM_DATA_MODULE8StartCANEP19__CAN_HandleTypeDef+0xe8>)
 8000f5e:	681b      	ldr	r3, [r3, #0]
 8000f60:	2102      	movs	r1, #2
 8000f62:	0018      	movs	r0, r3
 8000f64:	f000 fd5a 	bl	8001a1c <HAL_CAN_ActivateNotification>

	//Start the CAN bus
	HAL_CAN_Start(hcan);
 8000f68:	4b04      	ldr	r3, [pc, #16]	; (8000f7c <_ZN21SUBSYSTEM_DATA_MODULE8StartCANEP19__CAN_HandleTypeDef+0xe8>)
 8000f6a:	681b      	ldr	r3, [r3, #0]
 8000f6c:	0018      	movs	r0, r3
 8000f6e:	f000 fd0f 	bl	8001990 <HAL_CAN_Start>
}
 8000f72:	46c0      	nop			; (mov r8, r8)
 8000f74:	46bd      	mov	sp, r7
 8000f76:	b00c      	add	sp, #48	; 0x30
 8000f78:	bd80      	pop	{r7, pc}
 8000f7a:	46c0      	nop			; (mov r8, r8)
 8000f7c:	200001e8 	.word	0x200001e8
 8000f80:	40006400 	.word	0x40006400

08000f84 <_ZN11HELPER_FIFOIhLt3ELt8EEC1Ev>:
template <class T,uint16_t DEPTH, uint16_t SIZE>
class HELPER_FIFO
{
public:
    //Constructors
    HELPER_FIFO():
 8000f84:	b580      	push	{r7, lr}
 8000f86:	b082      	sub	sp, #8
 8000f88:	af00      	add	r7, sp, #0
 8000f8a:	6078      	str	r0, [r7, #4]
    headIndex{0}, tailIndex{0}, emptyNotFull{true}
 8000f8c:	687b      	ldr	r3, [r7, #4]
 8000f8e:	2200      	movs	r2, #0
 8000f90:	831a      	strh	r2, [r3, #24]
 8000f92:	687b      	ldr	r3, [r7, #4]
 8000f94:	2200      	movs	r2, #0
 8000f96:	835a      	strh	r2, [r3, #26]
 8000f98:	687b      	ldr	r3, [r7, #4]
 8000f9a:	2201      	movs	r2, #1
 8000f9c:	771a      	strb	r2, [r3, #28]
    {}
 8000f9e:	687b      	ldr	r3, [r7, #4]
 8000fa0:	0018      	movs	r0, r3
 8000fa2:	46bd      	mov	sp, r7
 8000fa4:	b002      	add	sp, #8
 8000fa6:	bd80      	pop	{r7, pc}

08000fa8 <_Z41__static_initialization_and_destruction_0ii>:
bool SUBSYSTEM_DATA_MODULE::addToFifo(uint8_t* incoming_data)
{
    bool operationSucceeded;
    this->storageFifo.PushBack(incoming_data, &operationSucceeded);
    return operationSucceeded;
}
 8000fa8:	b580      	push	{r7, lr}
 8000faa:	b082      	sub	sp, #8
 8000fac:	af00      	add	r7, sp, #0
 8000fae:	6078      	str	r0, [r7, #4]
 8000fb0:	6039      	str	r1, [r7, #0]
 8000fb2:	687b      	ldr	r3, [r7, #4]
 8000fb4:	2b01      	cmp	r3, #1
 8000fb6:	d107      	bne.n	8000fc8 <_Z41__static_initialization_and_destruction_0ii+0x20>
 8000fb8:	683b      	ldr	r3, [r7, #0]
 8000fba:	4a05      	ldr	r2, [pc, #20]	; (8000fd0 <_Z41__static_initialization_and_destruction_0ii+0x28>)
 8000fbc:	4293      	cmp	r3, r2
 8000fbe:	d103      	bne.n	8000fc8 <_Z41__static_initialization_and_destruction_0ii+0x20>
 RX_BINARY_TREE SUBSYSTEM_DATA_MODULE::rxModulesTree{};
 8000fc0:	4b04      	ldr	r3, [pc, #16]	; (8000fd4 <_Z41__static_initialization_and_destruction_0ii+0x2c>)
 8000fc2:	0018      	movs	r0, r3
 8000fc4:	f000 f814 	bl	8000ff0 <_ZN14RX_BINARY_TREEC1Ev>
}
 8000fc8:	46c0      	nop			; (mov r8, r8)
 8000fca:	46bd      	mov	sp, r7
 8000fcc:	b002      	add	sp, #8
 8000fce:	bd80      	pop	{r7, pc}
 8000fd0:	0000ffff 	.word	0x0000ffff
 8000fd4:	200001b0 	.word	0x200001b0

08000fd8 <_GLOBAL__sub_I__ZN21SUBSYSTEM_DATA_MODULE13rxModulesTreeE>:
 8000fd8:	b580      	push	{r7, lr}
 8000fda:	af00      	add	r7, sp, #0
 8000fdc:	4b03      	ldr	r3, [pc, #12]	; (8000fec <_GLOBAL__sub_I__ZN21SUBSYSTEM_DATA_MODULE13rxModulesTreeE+0x14>)
 8000fde:	0019      	movs	r1, r3
 8000fe0:	2001      	movs	r0, #1
 8000fe2:	f7ff ffe1 	bl	8000fa8 <_Z41__static_initialization_and_destruction_0ii>
 8000fe6:	46bd      	mov	sp, r7
 8000fe8:	bd80      	pop	{r7, pc}
 8000fea:	46c0      	nop			; (mov r8, r8)
 8000fec:	0000ffff 	.word	0x0000ffff

08000ff0 <_ZN14RX_BINARY_TREEC1Ev>:
//Public Variables

//Private Function Prototypes

//Public Function Prototypes
RX_BINARY_TREE::RX_BINARY_TREE():
 8000ff0:	b580      	push	{r7, lr}
 8000ff2:	b082      	sub	sp, #8
 8000ff4:	af00      	add	r7, sp, #0
 8000ff6:	6078      	str	r0, [r7, #4]
root{nullptr}, currentTreeSize{0}
 8000ff8:	687b      	ldr	r3, [r7, #4]
 8000ffa:	2200      	movs	r2, #0
 8000ffc:	631a      	str	r2, [r3, #48]	; 0x30
 8000ffe:	687b      	ldr	r3, [r7, #4]
 8001000:	2200      	movs	r2, #0
 8001002:	869a      	strh	r2, [r3, #52]	; 0x34
{}
 8001004:	687b      	ldr	r3, [r7, #4]
 8001006:	0018      	movs	r0, r3
 8001008:	46bd      	mov	sp, r7
 800100a:	b002      	add	sp, #8
 800100c:	bd80      	pop	{r7, pc}

0800100e <_ZN14RX_BINARY_TREE7AddNodeEP21SUBSYSTEM_DATA_MODULE>:

void RX_BINARY_TREE::AddNode(SUBSYSTEM_DATA_MODULE* new_element)
{
 800100e:	b580      	push	{r7, lr}
 8001010:	b082      	sub	sp, #8
 8001012:	af00      	add	r7, sp, #0
 8001014:	6078      	str	r0, [r7, #4]
 8001016:	6039      	str	r1, [r7, #0]
    //Only insert a node if there is room and we have a valid message id
    if(currentTreeSize < subsystem_info::NUM_MESSAGES && new_element != nullptr)
 8001018:	687b      	ldr	r3, [r7, #4]
 800101a:	8e9b      	ldrh	r3, [r3, #52]	; 0x34
 800101c:	2b02      	cmp	r3, #2
 800101e:	d80c      	bhi.n	800103a <_ZN14RX_BINARY_TREE7AddNodeEP21SUBSYSTEM_DATA_MODULE+0x2c>
 8001020:	683b      	ldr	r3, [r7, #0]
 8001022:	2b00      	cmp	r3, #0
 8001024:	d009      	beq.n	800103a <_ZN14RX_BINARY_TREE7AddNodeEP21SUBSYSTEM_DATA_MODULE+0x2c>
    {
        root = insert(root,new_element);
 8001026:	687b      	ldr	r3, [r7, #4]
 8001028:	6b19      	ldr	r1, [r3, #48]	; 0x30
 800102a:	683a      	ldr	r2, [r7, #0]
 800102c:	687b      	ldr	r3, [r7, #4]
 800102e:	0018      	movs	r0, r3
 8001030:	f000 f943 	bl	80012ba <_ZN14RX_BINARY_TREE6insertEP4NodeP21SUBSYSTEM_DATA_MODULE>
 8001034:	0002      	movs	r2, r0
 8001036:	687b      	ldr	r3, [r7, #4]
 8001038:	631a      	str	r2, [r3, #48]	; 0x30
    }
}
 800103a:	46c0      	nop			; (mov r8, r8)
 800103c:	46bd      	mov	sp, r7
 800103e:	b002      	add	sp, #8
 8001040:	bd80      	pop	{r7, pc}

08001042 <_ZN14RX_BINARY_TREE7newNodeEP21SUBSYSTEM_DATA_MODULE>:
    }
    
}

Node* RX_BINARY_TREE::newNode(SUBSYSTEM_DATA_MODULE* new_element)
{
 8001042:	b580      	push	{r7, lr}
 8001044:	b082      	sub	sp, #8
 8001046:	af00      	add	r7, sp, #0
 8001048:	6078      	str	r0, [r7, #4]
 800104a:	6039      	str	r1, [r7, #0]
    treeArray[currentTreeSize].datum = new_element;
 800104c:	687b      	ldr	r3, [r7, #4]
 800104e:	8e9b      	ldrh	r3, [r3, #52]	; 0x34
 8001050:	001a      	movs	r2, r3
 8001052:	687b      	ldr	r3, [r7, #4]
 8001054:	0112      	lsls	r2, r2, #4
 8001056:	6839      	ldr	r1, [r7, #0]
 8001058:	50d1      	str	r1, [r2, r3]
    treeArray[currentTreeSize].left = nullptr;
 800105a:	687b      	ldr	r3, [r7, #4]
 800105c:	8e9b      	ldrh	r3, [r3, #52]	; 0x34
 800105e:	687a      	ldr	r2, [r7, #4]
 8001060:	011b      	lsls	r3, r3, #4
 8001062:	18d3      	adds	r3, r2, r3
 8001064:	3304      	adds	r3, #4
 8001066:	2200      	movs	r2, #0
 8001068:	601a      	str	r2, [r3, #0]
    treeArray[currentTreeSize].right = nullptr;
 800106a:	687b      	ldr	r3, [r7, #4]
 800106c:	8e9b      	ldrh	r3, [r3, #52]	; 0x34
 800106e:	687a      	ldr	r2, [r7, #4]
 8001070:	011b      	lsls	r3, r3, #4
 8001072:	18d3      	adds	r3, r2, r3
 8001074:	3308      	adds	r3, #8
 8001076:	2200      	movs	r2, #0
 8001078:	601a      	str	r2, [r3, #0]
    treeArray[currentTreeSize].height = 1;
 800107a:	687b      	ldr	r3, [r7, #4]
 800107c:	8e9b      	ldrh	r3, [r3, #52]	; 0x34
 800107e:	687a      	ldr	r2, [r7, #4]
 8001080:	011b      	lsls	r3, r3, #4
 8001082:	18d3      	adds	r3, r2, r3
 8001084:	330c      	adds	r3, #12
 8001086:	2201      	movs	r2, #1
 8001088:	701a      	strb	r2, [r3, #0]
    return &treeArray[currentTreeSize++];
 800108a:	687b      	ldr	r3, [r7, #4]
 800108c:	8e9b      	ldrh	r3, [r3, #52]	; 0x34
 800108e:	1c5a      	adds	r2, r3, #1
 8001090:	b291      	uxth	r1, r2
 8001092:	687a      	ldr	r2, [r7, #4]
 8001094:	8691      	strh	r1, [r2, #52]	; 0x34
 8001096:	011b      	lsls	r3, r3, #4
 8001098:	687a      	ldr	r2, [r7, #4]
 800109a:	18d3      	adds	r3, r2, r3
}
 800109c:	0018      	movs	r0, r3
 800109e:	46bd      	mov	sp, r7
 80010a0:	b002      	add	sp, #8
 80010a2:	bd80      	pop	{r7, pc}

080010a4 <_ZN14RX_BINARY_TREE3maxEmm>:

uint32_t RX_BINARY_TREE::max(uint32_t a, uint32_t b)  
{  
 80010a4:	b580      	push	{r7, lr}
 80010a6:	b084      	sub	sp, #16
 80010a8:	af00      	add	r7, sp, #0
 80010aa:	60f8      	str	r0, [r7, #12]
 80010ac:	60b9      	str	r1, [r7, #8]
 80010ae:	607a      	str	r2, [r7, #4]
    return (a > b)? a : b;  
 80010b0:	68ba      	ldr	r2, [r7, #8]
 80010b2:	687b      	ldr	r3, [r7, #4]
 80010b4:	429a      	cmp	r2, r3
 80010b6:	d901      	bls.n	80010bc <_ZN14RX_BINARY_TREE3maxEmm+0x18>
 80010b8:	68bb      	ldr	r3, [r7, #8]
 80010ba:	e000      	b.n	80010be <_ZN14RX_BINARY_TREE3maxEmm+0x1a>
 80010bc:	687b      	ldr	r3, [r7, #4]
}  
 80010be:	0018      	movs	r0, r3
 80010c0:	46bd      	mov	sp, r7
 80010c2:	b004      	add	sp, #16
 80010c4:	bd80      	pop	{r7, pc}

080010c6 <_ZN14RX_BINARY_TREE6heightEP4Node>:
{
    return (message_id == RX_BINARY_TREE::INVALID_MESSAGE_ID ? false : true);
}

uint8_t RX_BINARY_TREE::height(Node *N)  
{  
 80010c6:	b580      	push	{r7, lr}
 80010c8:	b082      	sub	sp, #8
 80010ca:	af00      	add	r7, sp, #0
 80010cc:	6078      	str	r0, [r7, #4]
 80010ce:	6039      	str	r1, [r7, #0]
    if (N == nullptr)  
 80010d0:	683b      	ldr	r3, [r7, #0]
 80010d2:	2b00      	cmp	r3, #0
 80010d4:	d101      	bne.n	80010da <_ZN14RX_BINARY_TREE6heightEP4Node+0x14>
        return 0;  
 80010d6:	2300      	movs	r3, #0
 80010d8:	e001      	b.n	80010de <_ZN14RX_BINARY_TREE6heightEP4Node+0x18>
    return N->height;  
 80010da:	683b      	ldr	r3, [r7, #0]
 80010dc:	7b1b      	ldrb	r3, [r3, #12]
}
 80010de:	0018      	movs	r0, r3
 80010e0:	46bd      	mov	sp, r7
 80010e2:	b002      	add	sp, #8
 80010e4:	bd80      	pop	{r7, pc}

080010e6 <_ZN14RX_BINARY_TREE8node_keyEP4Node>:

int32_t RX_BINARY_TREE::node_key(Node* N)
{
 80010e6:	b580      	push	{r7, lr}
 80010e8:	b082      	sub	sp, #8
 80010ea:	af00      	add	r7, sp, #0
 80010ec:	6078      	str	r0, [r7, #4]
 80010ee:	6039      	str	r1, [r7, #0]
    if(N == nullptr)
 80010f0:	683b      	ldr	r3, [r7, #0]
 80010f2:	2b00      	cmp	r3, #0
 80010f4:	d102      	bne.n	80010fc <_ZN14RX_BINARY_TREE8node_keyEP4Node+0x16>
        return RX_BINARY_TREE::INVALID_MESSAGE_ID;
 80010f6:	2301      	movs	r3, #1
 80010f8:	425b      	negs	r3, r3
 80010fa:	e009      	b.n	8001110 <_ZN14RX_BINARY_TREE8node_keyEP4Node+0x2a>
    if(N->datum == nullptr)
 80010fc:	683b      	ldr	r3, [r7, #0]
 80010fe:	681b      	ldr	r3, [r3, #0]
 8001100:	2b00      	cmp	r3, #0
 8001102:	d102      	bne.n	800110a <_ZN14RX_BINARY_TREE8node_keyEP4Node+0x24>
        return RX_BINARY_TREE::INVALID_MESSAGE_ID;
 8001104:	2301      	movs	r3, #1
 8001106:	425b      	negs	r3, r3
 8001108:	e002      	b.n	8001110 <_ZN14RX_BINARY_TREE8node_keyEP4Node+0x2a>
    return N->datum->messageIdentifier;
 800110a:	683b      	ldr	r3, [r7, #0]
 800110c:	681b      	ldr	r3, [r3, #0]
 800110e:	685b      	ldr	r3, [r3, #4]
}
 8001110:	0018      	movs	r0, r3
 8001112:	46bd      	mov	sp, r7
 8001114:	b002      	add	sp, #8
 8001116:	bd80      	pop	{r7, pc}

08001118 <_ZN14RX_BINARY_TREE11element_keyEP21SUBSYSTEM_DATA_MODULE>:

int32_t RX_BINARY_TREE::element_key(SUBSYSTEM_DATA_MODULE* E)
{
 8001118:	b580      	push	{r7, lr}
 800111a:	b082      	sub	sp, #8
 800111c:	af00      	add	r7, sp, #0
 800111e:	6078      	str	r0, [r7, #4]
 8001120:	6039      	str	r1, [r7, #0]
    if(E == nullptr)
 8001122:	683b      	ldr	r3, [r7, #0]
 8001124:	2b00      	cmp	r3, #0
 8001126:	d102      	bne.n	800112e <_ZN14RX_BINARY_TREE11element_keyEP21SUBSYSTEM_DATA_MODULE+0x16>
        return RX_BINARY_TREE::INVALID_MESSAGE_ID;
 8001128:	2301      	movs	r3, #1
 800112a:	425b      	negs	r3, r3
 800112c:	e001      	b.n	8001132 <_ZN14RX_BINARY_TREE11element_keyEP21SUBSYSTEM_DATA_MODULE+0x1a>
    return E->messageIdentifier;  
 800112e:	683b      	ldr	r3, [r7, #0]
 8001130:	685b      	ldr	r3, [r3, #4]
}
 8001132:	0018      	movs	r0, r3
 8001134:	46bd      	mov	sp, r7
 8001136:	b002      	add	sp, #8
 8001138:	bd80      	pop	{r7, pc}

0800113a <_ZN14RX_BINARY_TREE11rightRotateEP4Node>:
  
Node* RX_BINARY_TREE::rightRotate(Node *y)  
{  
 800113a:	b590      	push	{r4, r7, lr}
 800113c:	b085      	sub	sp, #20
 800113e:	af00      	add	r7, sp, #0
 8001140:	6078      	str	r0, [r7, #4]
 8001142:	6039      	str	r1, [r7, #0]
    Node *x = y->left;  
 8001144:	683b      	ldr	r3, [r7, #0]
 8001146:	685b      	ldr	r3, [r3, #4]
 8001148:	60fb      	str	r3, [r7, #12]
    Node *T2 = x->right;  
 800114a:	68fb      	ldr	r3, [r7, #12]
 800114c:	689b      	ldr	r3, [r3, #8]
 800114e:	60bb      	str	r3, [r7, #8]

    // Perform rotation  
    x->right = y;  
 8001150:	68fb      	ldr	r3, [r7, #12]
 8001152:	683a      	ldr	r2, [r7, #0]
 8001154:	609a      	str	r2, [r3, #8]
    y->left = T2;  
 8001156:	683b      	ldr	r3, [r7, #0]
 8001158:	68ba      	ldr	r2, [r7, #8]
 800115a:	605a      	str	r2, [r3, #4]

    // Update heights  
    y->height = max(height(y->left), 
 800115c:	683b      	ldr	r3, [r7, #0]
 800115e:	685a      	ldr	r2, [r3, #4]
 8001160:	687b      	ldr	r3, [r7, #4]
 8001162:	0011      	movs	r1, r2
 8001164:	0018      	movs	r0, r3
 8001166:	f7ff ffae 	bl	80010c6 <_ZN14RX_BINARY_TREE6heightEP4Node>
 800116a:	0003      	movs	r3, r0
 800116c:	001c      	movs	r4, r3
                    height(y->right)) + 1;  
 800116e:	683b      	ldr	r3, [r7, #0]
 8001170:	689a      	ldr	r2, [r3, #8]
 8001172:	687b      	ldr	r3, [r7, #4]
 8001174:	0011      	movs	r1, r2
 8001176:	0018      	movs	r0, r3
 8001178:	f7ff ffa5 	bl	80010c6 <_ZN14RX_BINARY_TREE6heightEP4Node>
 800117c:	0003      	movs	r3, r0
    y->height = max(height(y->left), 
 800117e:	001a      	movs	r2, r3
 8001180:	687b      	ldr	r3, [r7, #4]
 8001182:	0021      	movs	r1, r4
 8001184:	0018      	movs	r0, r3
 8001186:	f7ff ff8d 	bl	80010a4 <_ZN14RX_BINARY_TREE3maxEmm>
 800118a:	0003      	movs	r3, r0
                    height(y->right)) + 1;  
 800118c:	b2db      	uxtb	r3, r3
 800118e:	3301      	adds	r3, #1
 8001190:	b2da      	uxtb	r2, r3
    y->height = max(height(y->left), 
 8001192:	683b      	ldr	r3, [r7, #0]
 8001194:	731a      	strb	r2, [r3, #12]
    x->height = max(height(x->left), 
 8001196:	68fb      	ldr	r3, [r7, #12]
 8001198:	685a      	ldr	r2, [r3, #4]
 800119a:	687b      	ldr	r3, [r7, #4]
 800119c:	0011      	movs	r1, r2
 800119e:	0018      	movs	r0, r3
 80011a0:	f7ff ff91 	bl	80010c6 <_ZN14RX_BINARY_TREE6heightEP4Node>
 80011a4:	0003      	movs	r3, r0
 80011a6:	001c      	movs	r4, r3
                    height(x->right)) + 1;  
 80011a8:	68fb      	ldr	r3, [r7, #12]
 80011aa:	689a      	ldr	r2, [r3, #8]
 80011ac:	687b      	ldr	r3, [r7, #4]
 80011ae:	0011      	movs	r1, r2
 80011b0:	0018      	movs	r0, r3
 80011b2:	f7ff ff88 	bl	80010c6 <_ZN14RX_BINARY_TREE6heightEP4Node>
 80011b6:	0003      	movs	r3, r0
    x->height = max(height(x->left), 
 80011b8:	001a      	movs	r2, r3
 80011ba:	687b      	ldr	r3, [r7, #4]
 80011bc:	0021      	movs	r1, r4
 80011be:	0018      	movs	r0, r3
 80011c0:	f7ff ff70 	bl	80010a4 <_ZN14RX_BINARY_TREE3maxEmm>
 80011c4:	0003      	movs	r3, r0
                    height(x->right)) + 1;  
 80011c6:	b2db      	uxtb	r3, r3
 80011c8:	3301      	adds	r3, #1
 80011ca:	b2da      	uxtb	r2, r3
    x->height = max(height(x->left), 
 80011cc:	68fb      	ldr	r3, [r7, #12]
 80011ce:	731a      	strb	r2, [r3, #12]

    // Return new root  
    return x;  
 80011d0:	68fb      	ldr	r3, [r7, #12]
} 
 80011d2:	0018      	movs	r0, r3
 80011d4:	46bd      	mov	sp, r7
 80011d6:	b005      	add	sp, #20
 80011d8:	bd90      	pop	{r4, r7, pc}

080011da <_ZN14RX_BINARY_TREE10leftRotateEP4Node>:

Node* RX_BINARY_TREE::leftRotate(Node *x)  
{  
 80011da:	b590      	push	{r4, r7, lr}
 80011dc:	b085      	sub	sp, #20
 80011de:	af00      	add	r7, sp, #0
 80011e0:	6078      	str	r0, [r7, #4]
 80011e2:	6039      	str	r1, [r7, #0]
    Node *y = x->right;  
 80011e4:	683b      	ldr	r3, [r7, #0]
 80011e6:	689b      	ldr	r3, [r3, #8]
 80011e8:	60fb      	str	r3, [r7, #12]
    Node *T2 = y->left;  
 80011ea:	68fb      	ldr	r3, [r7, #12]
 80011ec:	685b      	ldr	r3, [r3, #4]
 80011ee:	60bb      	str	r3, [r7, #8]

    // Perform rotation  
    y->left = x;  
 80011f0:	68fb      	ldr	r3, [r7, #12]
 80011f2:	683a      	ldr	r2, [r7, #0]
 80011f4:	605a      	str	r2, [r3, #4]
    x->right = T2;  
 80011f6:	683b      	ldr	r3, [r7, #0]
 80011f8:	68ba      	ldr	r2, [r7, #8]
 80011fa:	609a      	str	r2, [r3, #8]

    // Update heights  
    x->height = max(height(x->left),     
 80011fc:	683b      	ldr	r3, [r7, #0]
 80011fe:	685a      	ldr	r2, [r3, #4]
 8001200:	687b      	ldr	r3, [r7, #4]
 8001202:	0011      	movs	r1, r2
 8001204:	0018      	movs	r0, r3
 8001206:	f7ff ff5e 	bl	80010c6 <_ZN14RX_BINARY_TREE6heightEP4Node>
 800120a:	0003      	movs	r3, r0
 800120c:	001c      	movs	r4, r3
                    height(x->right)) + 1;  
 800120e:	683b      	ldr	r3, [r7, #0]
 8001210:	689a      	ldr	r2, [r3, #8]
 8001212:	687b      	ldr	r3, [r7, #4]
 8001214:	0011      	movs	r1, r2
 8001216:	0018      	movs	r0, r3
 8001218:	f7ff ff55 	bl	80010c6 <_ZN14RX_BINARY_TREE6heightEP4Node>
 800121c:	0003      	movs	r3, r0
    x->height = max(height(x->left),     
 800121e:	001a      	movs	r2, r3
 8001220:	687b      	ldr	r3, [r7, #4]
 8001222:	0021      	movs	r1, r4
 8001224:	0018      	movs	r0, r3
 8001226:	f7ff ff3d 	bl	80010a4 <_ZN14RX_BINARY_TREE3maxEmm>
 800122a:	0003      	movs	r3, r0
                    height(x->right)) + 1;  
 800122c:	b2db      	uxtb	r3, r3
 800122e:	3301      	adds	r3, #1
 8001230:	b2da      	uxtb	r2, r3
    x->height = max(height(x->left),     
 8001232:	683b      	ldr	r3, [r7, #0]
 8001234:	731a      	strb	r2, [r3, #12]
    y->height = max(height(y->left),  
 8001236:	68fb      	ldr	r3, [r7, #12]
 8001238:	685a      	ldr	r2, [r3, #4]
 800123a:	687b      	ldr	r3, [r7, #4]
 800123c:	0011      	movs	r1, r2
 800123e:	0018      	movs	r0, r3
 8001240:	f7ff ff41 	bl	80010c6 <_ZN14RX_BINARY_TREE6heightEP4Node>
 8001244:	0003      	movs	r3, r0
 8001246:	001c      	movs	r4, r3
                    height(y->right)) + 1;  
 8001248:	68fb      	ldr	r3, [r7, #12]
 800124a:	689a      	ldr	r2, [r3, #8]
 800124c:	687b      	ldr	r3, [r7, #4]
 800124e:	0011      	movs	r1, r2
 8001250:	0018      	movs	r0, r3
 8001252:	f7ff ff38 	bl	80010c6 <_ZN14RX_BINARY_TREE6heightEP4Node>
 8001256:	0003      	movs	r3, r0
    y->height = max(height(y->left),  
 8001258:	001a      	movs	r2, r3
 800125a:	687b      	ldr	r3, [r7, #4]
 800125c:	0021      	movs	r1, r4
 800125e:	0018      	movs	r0, r3
 8001260:	f7ff ff20 	bl	80010a4 <_ZN14RX_BINARY_TREE3maxEmm>
 8001264:	0003      	movs	r3, r0
                    height(y->right)) + 1;  
 8001266:	b2db      	uxtb	r3, r3
 8001268:	3301      	adds	r3, #1
 800126a:	b2da      	uxtb	r2, r3
    y->height = max(height(y->left),  
 800126c:	68fb      	ldr	r3, [r7, #12]
 800126e:	731a      	strb	r2, [r3, #12]

    // Return new root  
    return y;  
 8001270:	68fb      	ldr	r3, [r7, #12]
}  
 8001272:	0018      	movs	r0, r3
 8001274:	46bd      	mov	sp, r7
 8001276:	b005      	add	sp, #20
 8001278:	bd90      	pop	{r4, r7, pc}

0800127a <_ZN14RX_BINARY_TREE10getBalanceEP4Node>:
 
int RX_BINARY_TREE::getBalance(Node *N)  
{  
 800127a:	b590      	push	{r4, r7, lr}
 800127c:	b083      	sub	sp, #12
 800127e:	af00      	add	r7, sp, #0
 8001280:	6078      	str	r0, [r7, #4]
 8001282:	6039      	str	r1, [r7, #0]
    if (N == nullptr)  
 8001284:	683b      	ldr	r3, [r7, #0]
 8001286:	2b00      	cmp	r3, #0
 8001288:	d101      	bne.n	800128e <_ZN14RX_BINARY_TREE10getBalanceEP4Node+0x14>
        return 0;  
 800128a:	2300      	movs	r3, #0
 800128c:	e011      	b.n	80012b2 <_ZN14RX_BINARY_TREE10getBalanceEP4Node+0x38>
    return height(N->left) - height(N->right);  
 800128e:	683b      	ldr	r3, [r7, #0]
 8001290:	685a      	ldr	r2, [r3, #4]
 8001292:	687b      	ldr	r3, [r7, #4]
 8001294:	0011      	movs	r1, r2
 8001296:	0018      	movs	r0, r3
 8001298:	f7ff ff15 	bl	80010c6 <_ZN14RX_BINARY_TREE6heightEP4Node>
 800129c:	0003      	movs	r3, r0
 800129e:	001c      	movs	r4, r3
 80012a0:	683b      	ldr	r3, [r7, #0]
 80012a2:	689a      	ldr	r2, [r3, #8]
 80012a4:	687b      	ldr	r3, [r7, #4]
 80012a6:	0011      	movs	r1, r2
 80012a8:	0018      	movs	r0, r3
 80012aa:	f7ff ff0c 	bl	80010c6 <_ZN14RX_BINARY_TREE6heightEP4Node>
 80012ae:	0003      	movs	r3, r0
 80012b0:	1ae3      	subs	r3, r4, r3
}  
 80012b2:	0018      	movs	r0, r3
 80012b4:	46bd      	mov	sp, r7
 80012b6:	b003      	add	sp, #12
 80012b8:	bd90      	pop	{r4, r7, pc}

080012ba <_ZN14RX_BINARY_TREE6insertEP4NodeP21SUBSYSTEM_DATA_MODULE>:

Node* RX_BINARY_TREE::insert(Node* node, SUBSYSTEM_DATA_MODULE* new_element)  
{  
 80012ba:	b590      	push	{r4, r7, lr}
 80012bc:	b087      	sub	sp, #28
 80012be:	af00      	add	r7, sp, #0
 80012c0:	60f8      	str	r0, [r7, #12]
 80012c2:	60b9      	str	r1, [r7, #8]
 80012c4:	607a      	str	r2, [r7, #4]
    /* 1. Perform the normal BST insertion */
    if (node == nullptr)  
 80012c6:	68bb      	ldr	r3, [r7, #8]
 80012c8:	2b00      	cmp	r3, #0
 80012ca:	d107      	bne.n	80012dc <_ZN14RX_BINARY_TREE6insertEP4NodeP21SUBSYSTEM_DATA_MODULE+0x22>
        return(newNode(new_element));  
 80012cc:	687a      	ldr	r2, [r7, #4]
 80012ce:	68fb      	ldr	r3, [r7, #12]
 80012d0:	0011      	movs	r1, r2
 80012d2:	0018      	movs	r0, r3
 80012d4:	f7ff feb5 	bl	8001042 <_ZN14RX_BINARY_TREE7newNodeEP21SUBSYSTEM_DATA_MODULE>
 80012d8:	0003      	movs	r3, r0
 80012da:	e101      	b.n	80014e0 <_ZN14RX_BINARY_TREE6insertEP4NodeP21SUBSYSTEM_DATA_MODULE+0x226>

    
    if (element_key(new_element) < node_key(node))  
 80012dc:	687a      	ldr	r2, [r7, #4]
 80012de:	68fb      	ldr	r3, [r7, #12]
 80012e0:	0011      	movs	r1, r2
 80012e2:	0018      	movs	r0, r3
 80012e4:	f7ff ff18 	bl	8001118 <_ZN14RX_BINARY_TREE11element_keyEP21SUBSYSTEM_DATA_MODULE>
 80012e8:	0004      	movs	r4, r0
 80012ea:	68ba      	ldr	r2, [r7, #8]
 80012ec:	68fb      	ldr	r3, [r7, #12]
 80012ee:	0011      	movs	r1, r2
 80012f0:	0018      	movs	r0, r3
 80012f2:	f7ff fef8 	bl	80010e6 <_ZN14RX_BINARY_TREE8node_keyEP4Node>
 80012f6:	0003      	movs	r3, r0
 80012f8:	2201      	movs	r2, #1
 80012fa:	429c      	cmp	r4, r3
 80012fc:	db01      	blt.n	8001302 <_ZN14RX_BINARY_TREE6insertEP4NodeP21SUBSYSTEM_DATA_MODULE+0x48>
 80012fe:	2300      	movs	r3, #0
 8001300:	1c1a      	adds	r2, r3, #0
 8001302:	b2d3      	uxtb	r3, r2
 8001304:	2b00      	cmp	r3, #0
 8001306:	d00a      	beq.n	800131e <_ZN14RX_BINARY_TREE6insertEP4NodeP21SUBSYSTEM_DATA_MODULE+0x64>
        node->left = insert(node->left, new_element);  
 8001308:	68bb      	ldr	r3, [r7, #8]
 800130a:	6859      	ldr	r1, [r3, #4]
 800130c:	687a      	ldr	r2, [r7, #4]
 800130e:	68fb      	ldr	r3, [r7, #12]
 8001310:	0018      	movs	r0, r3
 8001312:	f7ff ffd2 	bl	80012ba <_ZN14RX_BINARY_TREE6insertEP4NodeP21SUBSYSTEM_DATA_MODULE>
 8001316:	0002      	movs	r2, r0
 8001318:	68bb      	ldr	r3, [r7, #8]
 800131a:	605a      	str	r2, [r3, #4]
 800131c:	e022      	b.n	8001364 <_ZN14RX_BINARY_TREE6insertEP4NodeP21SUBSYSTEM_DATA_MODULE+0xaa>
    else if (element_key(new_element) > node_key(node))  
 800131e:	687a      	ldr	r2, [r7, #4]
 8001320:	68fb      	ldr	r3, [r7, #12]
 8001322:	0011      	movs	r1, r2
 8001324:	0018      	movs	r0, r3
 8001326:	f7ff fef7 	bl	8001118 <_ZN14RX_BINARY_TREE11element_keyEP21SUBSYSTEM_DATA_MODULE>
 800132a:	0004      	movs	r4, r0
 800132c:	68ba      	ldr	r2, [r7, #8]
 800132e:	68fb      	ldr	r3, [r7, #12]
 8001330:	0011      	movs	r1, r2
 8001332:	0018      	movs	r0, r3
 8001334:	f7ff fed7 	bl	80010e6 <_ZN14RX_BINARY_TREE8node_keyEP4Node>
 8001338:	0003      	movs	r3, r0
 800133a:	2201      	movs	r2, #1
 800133c:	429c      	cmp	r4, r3
 800133e:	dc01      	bgt.n	8001344 <_ZN14RX_BINARY_TREE6insertEP4NodeP21SUBSYSTEM_DATA_MODULE+0x8a>
 8001340:	2300      	movs	r3, #0
 8001342:	1c1a      	adds	r2, r3, #0
 8001344:	b2d3      	uxtb	r3, r2
 8001346:	2b00      	cmp	r3, #0
 8001348:	d00a      	beq.n	8001360 <_ZN14RX_BINARY_TREE6insertEP4NodeP21SUBSYSTEM_DATA_MODULE+0xa6>
        node->right = insert(node->right, new_element);  
 800134a:	68bb      	ldr	r3, [r7, #8]
 800134c:	6899      	ldr	r1, [r3, #8]
 800134e:	687a      	ldr	r2, [r7, #4]
 8001350:	68fb      	ldr	r3, [r7, #12]
 8001352:	0018      	movs	r0, r3
 8001354:	f7ff ffb1 	bl	80012ba <_ZN14RX_BINARY_TREE6insertEP4NodeP21SUBSYSTEM_DATA_MODULE>
 8001358:	0002      	movs	r2, r0
 800135a:	68bb      	ldr	r3, [r7, #8]
 800135c:	609a      	str	r2, [r3, #8]
 800135e:	e001      	b.n	8001364 <_ZN14RX_BINARY_TREE6insertEP4NodeP21SUBSYSTEM_DATA_MODULE+0xaa>
    else // Equal keys are not allowed in BST  
        return node;  
 8001360:	68bb      	ldr	r3, [r7, #8]
 8001362:	e0bd      	b.n	80014e0 <_ZN14RX_BINARY_TREE6insertEP4NodeP21SUBSYSTEM_DATA_MODULE+0x226>

    /* 2. Update height of this ancestor node */
    node->height = 1 + max(height(node->left),  
 8001364:	68bb      	ldr	r3, [r7, #8]
 8001366:	685a      	ldr	r2, [r3, #4]
 8001368:	68fb      	ldr	r3, [r7, #12]
 800136a:	0011      	movs	r1, r2
 800136c:	0018      	movs	r0, r3
 800136e:	f7ff feaa 	bl	80010c6 <_ZN14RX_BINARY_TREE6heightEP4Node>
 8001372:	0003      	movs	r3, r0
 8001374:	001c      	movs	r4, r3
                        height(node->right));  
 8001376:	68bb      	ldr	r3, [r7, #8]
 8001378:	689a      	ldr	r2, [r3, #8]
 800137a:	68fb      	ldr	r3, [r7, #12]
 800137c:	0011      	movs	r1, r2
 800137e:	0018      	movs	r0, r3
 8001380:	f7ff fea1 	bl	80010c6 <_ZN14RX_BINARY_TREE6heightEP4Node>
 8001384:	0003      	movs	r3, r0
    node->height = 1 + max(height(node->left),  
 8001386:	001a      	movs	r2, r3
 8001388:	68fb      	ldr	r3, [r7, #12]
 800138a:	0021      	movs	r1, r4
 800138c:	0018      	movs	r0, r3
 800138e:	f7ff fe89 	bl	80010a4 <_ZN14RX_BINARY_TREE3maxEmm>
 8001392:	0003      	movs	r3, r0
 8001394:	b2db      	uxtb	r3, r3
 8001396:	3301      	adds	r3, #1
 8001398:	b2da      	uxtb	r2, r3
 800139a:	68bb      	ldr	r3, [r7, #8]
 800139c:	731a      	strb	r2, [r3, #12]

    /* 3. Get the balance factor of this ancestor  
        node to check whether this node became  
        unbalanced */
    int balance = getBalance(node);  
 800139e:	68ba      	ldr	r2, [r7, #8]
 80013a0:	68fb      	ldr	r3, [r7, #12]
 80013a2:	0011      	movs	r1, r2
 80013a4:	0018      	movs	r0, r3
 80013a6:	f7ff ff68 	bl	800127a <_ZN14RX_BINARY_TREE10getBalanceEP4Node>
 80013aa:	0003      	movs	r3, r0
 80013ac:	617b      	str	r3, [r7, #20]

    // If this node becomes unbalanced, then  
    // there are 4 cases  

    // Left Left Case  
    if (balance > 1 && element_key(new_element) < node_key(node->left))  
 80013ae:	697b      	ldr	r3, [r7, #20]
 80013b0:	2b01      	cmp	r3, #1
 80013b2:	dd12      	ble.n	80013da <_ZN14RX_BINARY_TREE6insertEP4NodeP21SUBSYSTEM_DATA_MODULE+0x120>
 80013b4:	687a      	ldr	r2, [r7, #4]
 80013b6:	68fb      	ldr	r3, [r7, #12]
 80013b8:	0011      	movs	r1, r2
 80013ba:	0018      	movs	r0, r3
 80013bc:	f7ff feac 	bl	8001118 <_ZN14RX_BINARY_TREE11element_keyEP21SUBSYSTEM_DATA_MODULE>
 80013c0:	0004      	movs	r4, r0
 80013c2:	68bb      	ldr	r3, [r7, #8]
 80013c4:	685a      	ldr	r2, [r3, #4]
 80013c6:	68fb      	ldr	r3, [r7, #12]
 80013c8:	0011      	movs	r1, r2
 80013ca:	0018      	movs	r0, r3
 80013cc:	f7ff fe8b 	bl	80010e6 <_ZN14RX_BINARY_TREE8node_keyEP4Node>
 80013d0:	0003      	movs	r3, r0
 80013d2:	429c      	cmp	r4, r3
 80013d4:	da01      	bge.n	80013da <_ZN14RX_BINARY_TREE6insertEP4NodeP21SUBSYSTEM_DATA_MODULE+0x120>
 80013d6:	2301      	movs	r3, #1
 80013d8:	e000      	b.n	80013dc <_ZN14RX_BINARY_TREE6insertEP4NodeP21SUBSYSTEM_DATA_MODULE+0x122>
 80013da:	2300      	movs	r3, #0
 80013dc:	2b00      	cmp	r3, #0
 80013de:	d007      	beq.n	80013f0 <_ZN14RX_BINARY_TREE6insertEP4NodeP21SUBSYSTEM_DATA_MODULE+0x136>
        return rightRotate(node);  
 80013e0:	68ba      	ldr	r2, [r7, #8]
 80013e2:	68fb      	ldr	r3, [r7, #12]
 80013e4:	0011      	movs	r1, r2
 80013e6:	0018      	movs	r0, r3
 80013e8:	f7ff fea7 	bl	800113a <_ZN14RX_BINARY_TREE11rightRotateEP4Node>
 80013ec:	0003      	movs	r3, r0
 80013ee:	e077      	b.n	80014e0 <_ZN14RX_BINARY_TREE6insertEP4NodeP21SUBSYSTEM_DATA_MODULE+0x226>

    // Right Right Case  
    if (balance < -1 && element_key(new_element) > node_key(node->right))  
 80013f0:	697b      	ldr	r3, [r7, #20]
 80013f2:	3301      	adds	r3, #1
 80013f4:	da12      	bge.n	800141c <_ZN14RX_BINARY_TREE6insertEP4NodeP21SUBSYSTEM_DATA_MODULE+0x162>
 80013f6:	687a      	ldr	r2, [r7, #4]
 80013f8:	68fb      	ldr	r3, [r7, #12]
 80013fa:	0011      	movs	r1, r2
 80013fc:	0018      	movs	r0, r3
 80013fe:	f7ff fe8b 	bl	8001118 <_ZN14RX_BINARY_TREE11element_keyEP21SUBSYSTEM_DATA_MODULE>
 8001402:	0004      	movs	r4, r0
 8001404:	68bb      	ldr	r3, [r7, #8]
 8001406:	689a      	ldr	r2, [r3, #8]
 8001408:	68fb      	ldr	r3, [r7, #12]
 800140a:	0011      	movs	r1, r2
 800140c:	0018      	movs	r0, r3
 800140e:	f7ff fe6a 	bl	80010e6 <_ZN14RX_BINARY_TREE8node_keyEP4Node>
 8001412:	0003      	movs	r3, r0
 8001414:	429c      	cmp	r4, r3
 8001416:	dd01      	ble.n	800141c <_ZN14RX_BINARY_TREE6insertEP4NodeP21SUBSYSTEM_DATA_MODULE+0x162>
 8001418:	2301      	movs	r3, #1
 800141a:	e000      	b.n	800141e <_ZN14RX_BINARY_TREE6insertEP4NodeP21SUBSYSTEM_DATA_MODULE+0x164>
 800141c:	2300      	movs	r3, #0
 800141e:	2b00      	cmp	r3, #0
 8001420:	d007      	beq.n	8001432 <_ZN14RX_BINARY_TREE6insertEP4NodeP21SUBSYSTEM_DATA_MODULE+0x178>
        return leftRotate(node);  
 8001422:	68ba      	ldr	r2, [r7, #8]
 8001424:	68fb      	ldr	r3, [r7, #12]
 8001426:	0011      	movs	r1, r2
 8001428:	0018      	movs	r0, r3
 800142a:	f7ff fed6 	bl	80011da <_ZN14RX_BINARY_TREE10leftRotateEP4Node>
 800142e:	0003      	movs	r3, r0
 8001430:	e056      	b.n	80014e0 <_ZN14RX_BINARY_TREE6insertEP4NodeP21SUBSYSTEM_DATA_MODULE+0x226>

    // Left Right Case  
    if (balance > 1 && element_key(new_element) > node_key(node->left))  
 8001432:	697b      	ldr	r3, [r7, #20]
 8001434:	2b01      	cmp	r3, #1
 8001436:	dd12      	ble.n	800145e <_ZN14RX_BINARY_TREE6insertEP4NodeP21SUBSYSTEM_DATA_MODULE+0x1a4>
 8001438:	687a      	ldr	r2, [r7, #4]
 800143a:	68fb      	ldr	r3, [r7, #12]
 800143c:	0011      	movs	r1, r2
 800143e:	0018      	movs	r0, r3
 8001440:	f7ff fe6a 	bl	8001118 <_ZN14RX_BINARY_TREE11element_keyEP21SUBSYSTEM_DATA_MODULE>
 8001444:	0004      	movs	r4, r0
 8001446:	68bb      	ldr	r3, [r7, #8]
 8001448:	685a      	ldr	r2, [r3, #4]
 800144a:	68fb      	ldr	r3, [r7, #12]
 800144c:	0011      	movs	r1, r2
 800144e:	0018      	movs	r0, r3
 8001450:	f7ff fe49 	bl	80010e6 <_ZN14RX_BINARY_TREE8node_keyEP4Node>
 8001454:	0003      	movs	r3, r0
 8001456:	429c      	cmp	r4, r3
 8001458:	dd01      	ble.n	800145e <_ZN14RX_BINARY_TREE6insertEP4NodeP21SUBSYSTEM_DATA_MODULE+0x1a4>
 800145a:	2301      	movs	r3, #1
 800145c:	e000      	b.n	8001460 <_ZN14RX_BINARY_TREE6insertEP4NodeP21SUBSYSTEM_DATA_MODULE+0x1a6>
 800145e:	2300      	movs	r3, #0
 8001460:	2b00      	cmp	r3, #0
 8001462:	d011      	beq.n	8001488 <_ZN14RX_BINARY_TREE6insertEP4NodeP21SUBSYSTEM_DATA_MODULE+0x1ce>
    {  
        node->left = leftRotate(node->left);  
 8001464:	68bb      	ldr	r3, [r7, #8]
 8001466:	685a      	ldr	r2, [r3, #4]
 8001468:	68fb      	ldr	r3, [r7, #12]
 800146a:	0011      	movs	r1, r2
 800146c:	0018      	movs	r0, r3
 800146e:	f7ff feb4 	bl	80011da <_ZN14RX_BINARY_TREE10leftRotateEP4Node>
 8001472:	0002      	movs	r2, r0
 8001474:	68bb      	ldr	r3, [r7, #8]
 8001476:	605a      	str	r2, [r3, #4]
        return rightRotate(node);  
 8001478:	68ba      	ldr	r2, [r7, #8]
 800147a:	68fb      	ldr	r3, [r7, #12]
 800147c:	0011      	movs	r1, r2
 800147e:	0018      	movs	r0, r3
 8001480:	f7ff fe5b 	bl	800113a <_ZN14RX_BINARY_TREE11rightRotateEP4Node>
 8001484:	0003      	movs	r3, r0
 8001486:	e02b      	b.n	80014e0 <_ZN14RX_BINARY_TREE6insertEP4NodeP21SUBSYSTEM_DATA_MODULE+0x226>
    }  

    // Right Left Case  
    if (balance < -1 && element_key(new_element) < node_key(node->right))  
 8001488:	697b      	ldr	r3, [r7, #20]
 800148a:	3301      	adds	r3, #1
 800148c:	da12      	bge.n	80014b4 <_ZN14RX_BINARY_TREE6insertEP4NodeP21SUBSYSTEM_DATA_MODULE+0x1fa>
 800148e:	687a      	ldr	r2, [r7, #4]
 8001490:	68fb      	ldr	r3, [r7, #12]
 8001492:	0011      	movs	r1, r2
 8001494:	0018      	movs	r0, r3
 8001496:	f7ff fe3f 	bl	8001118 <_ZN14RX_BINARY_TREE11element_keyEP21SUBSYSTEM_DATA_MODULE>
 800149a:	0004      	movs	r4, r0
 800149c:	68bb      	ldr	r3, [r7, #8]
 800149e:	689a      	ldr	r2, [r3, #8]
 80014a0:	68fb      	ldr	r3, [r7, #12]
 80014a2:	0011      	movs	r1, r2
 80014a4:	0018      	movs	r0, r3
 80014a6:	f7ff fe1e 	bl	80010e6 <_ZN14RX_BINARY_TREE8node_keyEP4Node>
 80014aa:	0003      	movs	r3, r0
 80014ac:	429c      	cmp	r4, r3
 80014ae:	da01      	bge.n	80014b4 <_ZN14RX_BINARY_TREE6insertEP4NodeP21SUBSYSTEM_DATA_MODULE+0x1fa>
 80014b0:	2301      	movs	r3, #1
 80014b2:	e000      	b.n	80014b6 <_ZN14RX_BINARY_TREE6insertEP4NodeP21SUBSYSTEM_DATA_MODULE+0x1fc>
 80014b4:	2300      	movs	r3, #0
 80014b6:	2b00      	cmp	r3, #0
 80014b8:	d011      	beq.n	80014de <_ZN14RX_BINARY_TREE6insertEP4NodeP21SUBSYSTEM_DATA_MODULE+0x224>
    {  
        node->right = rightRotate(node->right);  
 80014ba:	68bb      	ldr	r3, [r7, #8]
 80014bc:	689a      	ldr	r2, [r3, #8]
 80014be:	68fb      	ldr	r3, [r7, #12]
 80014c0:	0011      	movs	r1, r2
 80014c2:	0018      	movs	r0, r3
 80014c4:	f7ff fe39 	bl	800113a <_ZN14RX_BINARY_TREE11rightRotateEP4Node>
 80014c8:	0002      	movs	r2, r0
 80014ca:	68bb      	ldr	r3, [r7, #8]
 80014cc:	609a      	str	r2, [r3, #8]
        return leftRotate(node);  
 80014ce:	68ba      	ldr	r2, [r7, #8]
 80014d0:	68fb      	ldr	r3, [r7, #12]
 80014d2:	0011      	movs	r1, r2
 80014d4:	0018      	movs	r0, r3
 80014d6:	f7ff fe80 	bl	80011da <_ZN14RX_BINARY_TREE10leftRotateEP4Node>
 80014da:	0003      	movs	r3, r0
 80014dc:	e000      	b.n	80014e0 <_ZN14RX_BINARY_TREE6insertEP4NodeP21SUBSYSTEM_DATA_MODULE+0x226>
    }  

    /* return the (unchanged) node pointer */
    return node;  
 80014de:	68bb      	ldr	r3, [r7, #8]
}
 80014e0:	0018      	movs	r0, r3
 80014e2:	46bd      	mov	sp, r7
 80014e4:	b007      	add	sp, #28
 80014e6:	bd90      	pop	{r4, r7, pc}

080014e8 <HAL_Init>:
  *       In the default implementation,Systick is used as source of time base.
  *       The tick variable is incremented each 1ms in its ISR.
  * @retval HAL status
  */
HAL_StatusTypeDef HAL_Init(void)
{
 80014e8:	b580      	push	{r7, lr}
 80014ea:	af00      	add	r7, sp, #0
  /* Configure Flash prefetch */ 
#if (PREFETCH_ENABLE != 0)
  __HAL_FLASH_PREFETCH_BUFFER_ENABLE();
 80014ec:	4b07      	ldr	r3, [pc, #28]	; (800150c <HAL_Init+0x24>)
 80014ee:	681a      	ldr	r2, [r3, #0]
 80014f0:	4b06      	ldr	r3, [pc, #24]	; (800150c <HAL_Init+0x24>)
 80014f2:	2110      	movs	r1, #16
 80014f4:	430a      	orrs	r2, r1
 80014f6:	601a      	str	r2, [r3, #0]
#endif /* PREFETCH_ENABLE */

  /* Use systick as time base source and configure 1ms tick (default clock after Reset is HSI) */

  HAL_InitTick(TICK_INT_PRIORITY);
 80014f8:	2000      	movs	r0, #0
 80014fa:	f000 f809 	bl	8001510 <HAL_InitTick>

  /* Init the low level hardware */
  HAL_MspInit();
 80014fe:	f7ff fa33 	bl	8000968 <HAL_MspInit>

  /* Return function status */
  return HAL_OK;
 8001502:	2300      	movs	r3, #0
}
 8001504:	0018      	movs	r0, r3
 8001506:	46bd      	mov	sp, r7
 8001508:	bd80      	pop	{r7, pc}
 800150a:	46c0      	nop			; (mov r8, r8)
 800150c:	40022000 	.word	0x40022000

08001510 <HAL_InitTick>:
  *       implementation  in user file.
  * @param TickPriority Tick interrupt priority.
  * @retval HAL status
  */
__weak HAL_StatusTypeDef HAL_InitTick(uint32_t TickPriority)
{
 8001510:	b590      	push	{r4, r7, lr}
 8001512:	b083      	sub	sp, #12
 8001514:	af00      	add	r7, sp, #0
 8001516:	6078      	str	r0, [r7, #4]
  /*Configure the SysTick to have interrupt in 1ms time basis*/
  if (HAL_SYSTICK_Config(SystemCoreClock / (1000U / uwTickFreq)) > 0U)
 8001518:	4b14      	ldr	r3, [pc, #80]	; (800156c <HAL_InitTick+0x5c>)
 800151a:	681c      	ldr	r4, [r3, #0]
 800151c:	4b14      	ldr	r3, [pc, #80]	; (8001570 <HAL_InitTick+0x60>)
 800151e:	781b      	ldrb	r3, [r3, #0]
 8001520:	0019      	movs	r1, r3
 8001522:	23fa      	movs	r3, #250	; 0xfa
 8001524:	0098      	lsls	r0, r3, #2
 8001526:	f7fe fdef 	bl	8000108 <__udivsi3>
 800152a:	0003      	movs	r3, r0
 800152c:	0019      	movs	r1, r3
 800152e:	0020      	movs	r0, r4
 8001530:	f7fe fdea 	bl	8000108 <__udivsi3>
 8001534:	0003      	movs	r3, r0
 8001536:	0018      	movs	r0, r3
 8001538:	f000 fb6b 	bl	8001c12 <HAL_SYSTICK_Config>
 800153c:	1e03      	subs	r3, r0, #0
 800153e:	d001      	beq.n	8001544 <HAL_InitTick+0x34>
  {
    return HAL_ERROR;
 8001540:	2301      	movs	r3, #1
 8001542:	e00f      	b.n	8001564 <HAL_InitTick+0x54>
  }

  /* Configure the SysTick IRQ priority */
  if (TickPriority < (1UL << __NVIC_PRIO_BITS))
 8001544:	687b      	ldr	r3, [r7, #4]
 8001546:	2b03      	cmp	r3, #3
 8001548:	d80b      	bhi.n	8001562 <HAL_InitTick+0x52>
  {
    HAL_NVIC_SetPriority(SysTick_IRQn, TickPriority, 0U);
 800154a:	6879      	ldr	r1, [r7, #4]
 800154c:	2301      	movs	r3, #1
 800154e:	425b      	negs	r3, r3
 8001550:	2200      	movs	r2, #0
 8001552:	0018      	movs	r0, r3
 8001554:	f000 fb38 	bl	8001bc8 <HAL_NVIC_SetPriority>
    uwTickPrio = TickPriority;
 8001558:	4b06      	ldr	r3, [pc, #24]	; (8001574 <HAL_InitTick+0x64>)
 800155a:	687a      	ldr	r2, [r7, #4]
 800155c:	601a      	str	r2, [r3, #0]
  {
    return HAL_ERROR;
  }

   /* Return function status */
  return HAL_OK;
 800155e:	2300      	movs	r3, #0
 8001560:	e000      	b.n	8001564 <HAL_InitTick+0x54>
    return HAL_ERROR;
 8001562:	2301      	movs	r3, #1
}
 8001564:	0018      	movs	r0, r3
 8001566:	46bd      	mov	sp, r7
 8001568:	b003      	add	sp, #12
 800156a:	bd90      	pop	{r4, r7, pc}
 800156c:	20000000 	.word	0x20000000
 8001570:	20000008 	.word	0x20000008
 8001574:	20000004 	.word	0x20000004

08001578 <HAL_IncTick>:
  * @note This function is declared as __weak to be overwritten in case of other 
  *       implementations in user file.
  * @retval None
  */
__weak void HAL_IncTick(void)
{
 8001578:	b580      	push	{r7, lr}
 800157a:	af00      	add	r7, sp, #0
  uwTick += uwTickFreq;
 800157c:	4b05      	ldr	r3, [pc, #20]	; (8001594 <HAL_IncTick+0x1c>)
 800157e:	781b      	ldrb	r3, [r3, #0]
 8001580:	001a      	movs	r2, r3
 8001582:	4b05      	ldr	r3, [pc, #20]	; (8001598 <HAL_IncTick+0x20>)
 8001584:	681b      	ldr	r3, [r3, #0]
 8001586:	18d2      	adds	r2, r2, r3
 8001588:	4b03      	ldr	r3, [pc, #12]	; (8001598 <HAL_IncTick+0x20>)
 800158a:	601a      	str	r2, [r3, #0]
}
 800158c:	46c0      	nop			; (mov r8, r8)
 800158e:	46bd      	mov	sp, r7
 8001590:	bd80      	pop	{r7, pc}
 8001592:	46c0      	nop			; (mov r8, r8)
 8001594:	20000008 	.word	0x20000008
 8001598:	200001ec 	.word	0x200001ec

0800159c <HAL_GetTick>:
  * @note   This function is declared as __weak  to be overwritten  in case of other 
  *       implementations in user file.
  * @retval tick value
  */
__weak uint32_t HAL_GetTick(void)
{
 800159c:	b580      	push	{r7, lr}
 800159e:	af00      	add	r7, sp, #0
  return uwTick;
 80015a0:	4b02      	ldr	r3, [pc, #8]	; (80015ac <HAL_GetTick+0x10>)
 80015a2:	681b      	ldr	r3, [r3, #0]
}
 80015a4:	0018      	movs	r0, r3
 80015a6:	46bd      	mov	sp, r7
 80015a8:	bd80      	pop	{r7, pc}
 80015aa:	46c0      	nop			; (mov r8, r8)
 80015ac:	200001ec 	.word	0x200001ec

080015b0 <HAL_CAN_Init>:
  * @param  hcan pointer to a CAN_HandleTypeDef structure that contains
  *         the configuration information for the specified CAN.
  * @retval HAL status
  */
HAL_StatusTypeDef HAL_CAN_Init(CAN_HandleTypeDef *hcan)
{
 80015b0:	b580      	push	{r7, lr}
 80015b2:	b084      	sub	sp, #16
 80015b4:	af00      	add	r7, sp, #0
 80015b6:	6078      	str	r0, [r7, #4]
  uint32_t tickstart;

  /* Check CAN handle */
  if (hcan == NULL)
 80015b8:	687b      	ldr	r3, [r7, #4]
 80015ba:	2b00      	cmp	r3, #0
 80015bc:	d101      	bne.n	80015c2 <HAL_CAN_Init+0x12>
  {
    return HAL_ERROR;
 80015be:	2301      	movs	r3, #1
 80015c0:	e0f0      	b.n	80017a4 <HAL_CAN_Init+0x1f4>
    /* Init the low level hardware: CLOCK, NVIC */
    hcan->MspInitCallback(hcan);
  }

#else
  if (hcan->State == HAL_CAN_STATE_RESET)
 80015c2:	687b      	ldr	r3, [r7, #4]
 80015c4:	2220      	movs	r2, #32
 80015c6:	5c9b      	ldrb	r3, [r3, r2]
 80015c8:	b2db      	uxtb	r3, r3
 80015ca:	2b00      	cmp	r3, #0
 80015cc:	d103      	bne.n	80015d6 <HAL_CAN_Init+0x26>
  {
    /* Init the low level hardware: CLOCK, NVIC */
    HAL_CAN_MspInit(hcan);
 80015ce:	687b      	ldr	r3, [r7, #4]
 80015d0:	0018      	movs	r0, r3
 80015d2:	f7ff f9ed 	bl	80009b0 <HAL_CAN_MspInit>
  }
#endif /* (USE_HAL_CAN_REGISTER_CALLBACKS) */

  /* Exit from sleep mode */
  CLEAR_BIT(hcan->Instance->MCR, CAN_MCR_SLEEP);
 80015d6:	687b      	ldr	r3, [r7, #4]
 80015d8:	681b      	ldr	r3, [r3, #0]
 80015da:	681a      	ldr	r2, [r3, #0]
 80015dc:	687b      	ldr	r3, [r7, #4]
 80015de:	681b      	ldr	r3, [r3, #0]
 80015e0:	2102      	movs	r1, #2
 80015e2:	438a      	bics	r2, r1
 80015e4:	601a      	str	r2, [r3, #0]

  /* Get tick */
  tickstart = HAL_GetTick();
 80015e6:	f7ff ffd9 	bl	800159c <HAL_GetTick>
 80015ea:	0003      	movs	r3, r0
 80015ec:	60fb      	str	r3, [r7, #12]

  /* Check Sleep mode leave acknowledge */
  while ((hcan->Instance->MSR & CAN_MSR_SLAK) != 0U)
 80015ee:	e013      	b.n	8001618 <HAL_CAN_Init+0x68>
  {
    if ((HAL_GetTick() - tickstart) > CAN_TIMEOUT_VALUE)
 80015f0:	f7ff ffd4 	bl	800159c <HAL_GetTick>
 80015f4:	0002      	movs	r2, r0
 80015f6:	68fb      	ldr	r3, [r7, #12]
 80015f8:	1ad3      	subs	r3, r2, r3
 80015fa:	2b0a      	cmp	r3, #10
 80015fc:	d90c      	bls.n	8001618 <HAL_CAN_Init+0x68>
    {
      /* Update error code */
      hcan->ErrorCode |= HAL_CAN_ERROR_TIMEOUT;
 80015fe:	687b      	ldr	r3, [r7, #4]
 8001600:	6a5b      	ldr	r3, [r3, #36]	; 0x24
 8001602:	2280      	movs	r2, #128	; 0x80
 8001604:	0292      	lsls	r2, r2, #10
 8001606:	431a      	orrs	r2, r3
 8001608:	687b      	ldr	r3, [r7, #4]
 800160a:	625a      	str	r2, [r3, #36]	; 0x24

      /* Change CAN state */
      hcan->State = HAL_CAN_STATE_ERROR;
 800160c:	687b      	ldr	r3, [r7, #4]
 800160e:	2220      	movs	r2, #32
 8001610:	2105      	movs	r1, #5
 8001612:	5499      	strb	r1, [r3, r2]

      return HAL_ERROR;
 8001614:	2301      	movs	r3, #1
 8001616:	e0c5      	b.n	80017a4 <HAL_CAN_Init+0x1f4>
  while ((hcan->Instance->MSR & CAN_MSR_SLAK) != 0U)
 8001618:	687b      	ldr	r3, [r7, #4]
 800161a:	681b      	ldr	r3, [r3, #0]
 800161c:	685b      	ldr	r3, [r3, #4]
 800161e:	2202      	movs	r2, #2
 8001620:	4013      	ands	r3, r2
 8001622:	d1e5      	bne.n	80015f0 <HAL_CAN_Init+0x40>
    }
  }

  /* Request initialisation */
  SET_BIT(hcan->Instance->MCR, CAN_MCR_INRQ);
 8001624:	687b      	ldr	r3, [r7, #4]
 8001626:	681b      	ldr	r3, [r3, #0]
 8001628:	681a      	ldr	r2, [r3, #0]
 800162a:	687b      	ldr	r3, [r7, #4]
 800162c:	681b      	ldr	r3, [r3, #0]
 800162e:	2101      	movs	r1, #1
 8001630:	430a      	orrs	r2, r1
 8001632:	601a      	str	r2, [r3, #0]

  /* Get tick */
  tickstart = HAL_GetTick();
 8001634:	f7ff ffb2 	bl	800159c <HAL_GetTick>
 8001638:	0003      	movs	r3, r0
 800163a:	60fb      	str	r3, [r7, #12]

  /* Wait initialisation acknowledge */
  while ((hcan->Instance->MSR & CAN_MSR_INAK) == 0U)
 800163c:	e013      	b.n	8001666 <HAL_CAN_Init+0xb6>
  {
    if ((HAL_GetTick() - tickstart) > CAN_TIMEOUT_VALUE)
 800163e:	f7ff ffad 	bl	800159c <HAL_GetTick>
 8001642:	0002      	movs	r2, r0
 8001644:	68fb      	ldr	r3, [r7, #12]
 8001646:	1ad3      	subs	r3, r2, r3
 8001648:	2b0a      	cmp	r3, #10
 800164a:	d90c      	bls.n	8001666 <HAL_CAN_Init+0xb6>
    {
      /* Update error code */
      hcan->ErrorCode |= HAL_CAN_ERROR_TIMEOUT;
 800164c:	687b      	ldr	r3, [r7, #4]
 800164e:	6a5b      	ldr	r3, [r3, #36]	; 0x24
 8001650:	2280      	movs	r2, #128	; 0x80
 8001652:	0292      	lsls	r2, r2, #10
 8001654:	431a      	orrs	r2, r3
 8001656:	687b      	ldr	r3, [r7, #4]
 8001658:	625a      	str	r2, [r3, #36]	; 0x24

      /* Change CAN state */
      hcan->State = HAL_CAN_STATE_ERROR;
 800165a:	687b      	ldr	r3, [r7, #4]
 800165c:	2220      	movs	r2, #32
 800165e:	2105      	movs	r1, #5
 8001660:	5499      	strb	r1, [r3, r2]

      return HAL_ERROR;
 8001662:	2301      	movs	r3, #1
 8001664:	e09e      	b.n	80017a4 <HAL_CAN_Init+0x1f4>
  while ((hcan->Instance->MSR & CAN_MSR_INAK) == 0U)
 8001666:	687b      	ldr	r3, [r7, #4]
 8001668:	681b      	ldr	r3, [r3, #0]
 800166a:	685b      	ldr	r3, [r3, #4]
 800166c:	2201      	movs	r2, #1
 800166e:	4013      	ands	r3, r2
 8001670:	d0e5      	beq.n	800163e <HAL_CAN_Init+0x8e>
    }
  }

  /* Set the time triggered communication mode */
  if (hcan->Init.TimeTriggeredMode == ENABLE)
 8001672:	687b      	ldr	r3, [r7, #4]
 8001674:	7e1b      	ldrb	r3, [r3, #24]
 8001676:	2b01      	cmp	r3, #1
 8001678:	d108      	bne.n	800168c <HAL_CAN_Init+0xdc>
  {
    SET_BIT(hcan->Instance->MCR, CAN_MCR_TTCM);
 800167a:	687b      	ldr	r3, [r7, #4]
 800167c:	681b      	ldr	r3, [r3, #0]
 800167e:	681a      	ldr	r2, [r3, #0]
 8001680:	687b      	ldr	r3, [r7, #4]
 8001682:	681b      	ldr	r3, [r3, #0]
 8001684:	2180      	movs	r1, #128	; 0x80
 8001686:	430a      	orrs	r2, r1
 8001688:	601a      	str	r2, [r3, #0]
 800168a:	e007      	b.n	800169c <HAL_CAN_Init+0xec>
  }
  else
  {
    CLEAR_BIT(hcan->Instance->MCR, CAN_MCR_TTCM);
 800168c:	687b      	ldr	r3, [r7, #4]
 800168e:	681b      	ldr	r3, [r3, #0]
 8001690:	681a      	ldr	r2, [r3, #0]
 8001692:	687b      	ldr	r3, [r7, #4]
 8001694:	681b      	ldr	r3, [r3, #0]
 8001696:	2180      	movs	r1, #128	; 0x80
 8001698:	438a      	bics	r2, r1
 800169a:	601a      	str	r2, [r3, #0]
  }

  /* Set the automatic bus-off management */
  if (hcan->Init.AutoBusOff == ENABLE)
 800169c:	687b      	ldr	r3, [r7, #4]
 800169e:	7e5b      	ldrb	r3, [r3, #25]
 80016a0:	2b01      	cmp	r3, #1
 80016a2:	d108      	bne.n	80016b6 <HAL_CAN_Init+0x106>
  {
    SET_BIT(hcan->Instance->MCR, CAN_MCR_ABOM);
 80016a4:	687b      	ldr	r3, [r7, #4]
 80016a6:	681b      	ldr	r3, [r3, #0]
 80016a8:	681a      	ldr	r2, [r3, #0]
 80016aa:	687b      	ldr	r3, [r7, #4]
 80016ac:	681b      	ldr	r3, [r3, #0]
 80016ae:	2140      	movs	r1, #64	; 0x40
 80016b0:	430a      	orrs	r2, r1
 80016b2:	601a      	str	r2, [r3, #0]
 80016b4:	e007      	b.n	80016c6 <HAL_CAN_Init+0x116>
  }
  else
  {
    CLEAR_BIT(hcan->Instance->MCR, CAN_MCR_ABOM);
 80016b6:	687b      	ldr	r3, [r7, #4]
 80016b8:	681b      	ldr	r3, [r3, #0]
 80016ba:	681a      	ldr	r2, [r3, #0]
 80016bc:	687b      	ldr	r3, [r7, #4]
 80016be:	681b      	ldr	r3, [r3, #0]
 80016c0:	2140      	movs	r1, #64	; 0x40
 80016c2:	438a      	bics	r2, r1
 80016c4:	601a      	str	r2, [r3, #0]
  }

  /* Set the automatic wake-up mode */
  if (hcan->Init.AutoWakeUp == ENABLE)
 80016c6:	687b      	ldr	r3, [r7, #4]
 80016c8:	7e9b      	ldrb	r3, [r3, #26]
 80016ca:	2b01      	cmp	r3, #1
 80016cc:	d108      	bne.n	80016e0 <HAL_CAN_Init+0x130>
  {
    SET_BIT(hcan->Instance->MCR, CAN_MCR_AWUM);
 80016ce:	687b      	ldr	r3, [r7, #4]
 80016d0:	681b      	ldr	r3, [r3, #0]
 80016d2:	681a      	ldr	r2, [r3, #0]
 80016d4:	687b      	ldr	r3, [r7, #4]
 80016d6:	681b      	ldr	r3, [r3, #0]
 80016d8:	2120      	movs	r1, #32
 80016da:	430a      	orrs	r2, r1
 80016dc:	601a      	str	r2, [r3, #0]
 80016de:	e007      	b.n	80016f0 <HAL_CAN_Init+0x140>
  }
  else
  {
    CLEAR_BIT(hcan->Instance->MCR, CAN_MCR_AWUM);
 80016e0:	687b      	ldr	r3, [r7, #4]
 80016e2:	681b      	ldr	r3, [r3, #0]
 80016e4:	681a      	ldr	r2, [r3, #0]
 80016e6:	687b      	ldr	r3, [r7, #4]
 80016e8:	681b      	ldr	r3, [r3, #0]
 80016ea:	2120      	movs	r1, #32
 80016ec:	438a      	bics	r2, r1
 80016ee:	601a      	str	r2, [r3, #0]
  }

  /* Set the automatic retransmission */
  if (hcan->Init.AutoRetransmission == ENABLE)
 80016f0:	687b      	ldr	r3, [r7, #4]
 80016f2:	7edb      	ldrb	r3, [r3, #27]
 80016f4:	2b01      	cmp	r3, #1
 80016f6:	d108      	bne.n	800170a <HAL_CAN_Init+0x15a>
  {
    CLEAR_BIT(hcan->Instance->MCR, CAN_MCR_NART);
 80016f8:	687b      	ldr	r3, [r7, #4]
 80016fa:	681b      	ldr	r3, [r3, #0]
 80016fc:	681a      	ldr	r2, [r3, #0]
 80016fe:	687b      	ldr	r3, [r7, #4]
 8001700:	681b      	ldr	r3, [r3, #0]
 8001702:	2110      	movs	r1, #16
 8001704:	438a      	bics	r2, r1
 8001706:	601a      	str	r2, [r3, #0]
 8001708:	e007      	b.n	800171a <HAL_CAN_Init+0x16a>
  }
  else
  {
    SET_BIT(hcan->Instance->MCR, CAN_MCR_NART);
 800170a:	687b      	ldr	r3, [r7, #4]
 800170c:	681b      	ldr	r3, [r3, #0]
 800170e:	681a      	ldr	r2, [r3, #0]
 8001710:	687b      	ldr	r3, [r7, #4]
 8001712:	681b      	ldr	r3, [r3, #0]
 8001714:	2110      	movs	r1, #16
 8001716:	430a      	orrs	r2, r1
 8001718:	601a      	str	r2, [r3, #0]
  }

  /* Set the receive FIFO locked mode */
  if (hcan->Init.ReceiveFifoLocked == ENABLE)
 800171a:	687b      	ldr	r3, [r7, #4]
 800171c:	7f1b      	ldrb	r3, [r3, #28]
 800171e:	2b01      	cmp	r3, #1
 8001720:	d108      	bne.n	8001734 <HAL_CAN_Init+0x184>
  {
    SET_BIT(hcan->Instance->MCR, CAN_MCR_RFLM);
 8001722:	687b      	ldr	r3, [r7, #4]
 8001724:	681b      	ldr	r3, [r3, #0]
 8001726:	681a      	ldr	r2, [r3, #0]
 8001728:	687b      	ldr	r3, [r7, #4]
 800172a:	681b      	ldr	r3, [r3, #0]
 800172c:	2108      	movs	r1, #8
 800172e:	430a      	orrs	r2, r1
 8001730:	601a      	str	r2, [r3, #0]
 8001732:	e007      	b.n	8001744 <HAL_CAN_Init+0x194>
  }
  else
  {
    CLEAR_BIT(hcan->Instance->MCR, CAN_MCR_RFLM);
 8001734:	687b      	ldr	r3, [r7, #4]
 8001736:	681b      	ldr	r3, [r3, #0]
 8001738:	681a      	ldr	r2, [r3, #0]
 800173a:	687b      	ldr	r3, [r7, #4]
 800173c:	681b      	ldr	r3, [r3, #0]
 800173e:	2108      	movs	r1, #8
 8001740:	438a      	bics	r2, r1
 8001742:	601a      	str	r2, [r3, #0]
  }

  /* Set the transmit FIFO priority */
  if (hcan->Init.TransmitFifoPriority == ENABLE)
 8001744:	687b      	ldr	r3, [r7, #4]
 8001746:	7f5b      	ldrb	r3, [r3, #29]
 8001748:	2b01      	cmp	r3, #1
 800174a:	d108      	bne.n	800175e <HAL_CAN_Init+0x1ae>
  {
    SET_BIT(hcan->Instance->MCR, CAN_MCR_TXFP);
 800174c:	687b      	ldr	r3, [r7, #4]
 800174e:	681b      	ldr	r3, [r3, #0]
 8001750:	681a      	ldr	r2, [r3, #0]
 8001752:	687b      	ldr	r3, [r7, #4]
 8001754:	681b      	ldr	r3, [r3, #0]
 8001756:	2104      	movs	r1, #4
 8001758:	430a      	orrs	r2, r1
 800175a:	601a      	str	r2, [r3, #0]
 800175c:	e007      	b.n	800176e <HAL_CAN_Init+0x1be>
  }
  else
  {
    CLEAR_BIT(hcan->Instance->MCR, CAN_MCR_TXFP);
 800175e:	687b      	ldr	r3, [r7, #4]
 8001760:	681b      	ldr	r3, [r3, #0]
 8001762:	681a      	ldr	r2, [r3, #0]
 8001764:	687b      	ldr	r3, [r7, #4]
 8001766:	681b      	ldr	r3, [r3, #0]
 8001768:	2104      	movs	r1, #4
 800176a:	438a      	bics	r2, r1
 800176c:	601a      	str	r2, [r3, #0]
  }

  /* Set the bit timing register */
  WRITE_REG(hcan->Instance->BTR, (uint32_t)(hcan->Init.Mode           |
 800176e:	687b      	ldr	r3, [r7, #4]
 8001770:	689a      	ldr	r2, [r3, #8]
 8001772:	687b      	ldr	r3, [r7, #4]
 8001774:	68db      	ldr	r3, [r3, #12]
 8001776:	431a      	orrs	r2, r3
 8001778:	687b      	ldr	r3, [r7, #4]
 800177a:	691b      	ldr	r3, [r3, #16]
 800177c:	431a      	orrs	r2, r3
 800177e:	687b      	ldr	r3, [r7, #4]
 8001780:	695b      	ldr	r3, [r3, #20]
 8001782:	431a      	orrs	r2, r3
 8001784:	0011      	movs	r1, r2
 8001786:	687b      	ldr	r3, [r7, #4]
 8001788:	685b      	ldr	r3, [r3, #4]
 800178a:	1e5a      	subs	r2, r3, #1
 800178c:	687b      	ldr	r3, [r7, #4]
 800178e:	681b      	ldr	r3, [r3, #0]
 8001790:	430a      	orrs	r2, r1
 8001792:	61da      	str	r2, [r3, #28]
                                            hcan->Init.TimeSeg1       |
                                            hcan->Init.TimeSeg2       |
                                            (hcan->Init.Prescaler - 1U)));

  /* Initialize the error code */
  hcan->ErrorCode = HAL_CAN_ERROR_NONE;
 8001794:	687b      	ldr	r3, [r7, #4]
 8001796:	2200      	movs	r2, #0
 8001798:	625a      	str	r2, [r3, #36]	; 0x24

  /* Initialize the CAN state */
  hcan->State = HAL_CAN_STATE_READY;
 800179a:	687b      	ldr	r3, [r7, #4]
 800179c:	2220      	movs	r2, #32
 800179e:	2101      	movs	r1, #1
 80017a0:	5499      	strb	r1, [r3, r2]

  /* Return function status */
  return HAL_OK;
 80017a2:	2300      	movs	r3, #0
}
 80017a4:	0018      	movs	r0, r3
 80017a6:	46bd      	mov	sp, r7
 80017a8:	b004      	add	sp, #16
 80017aa:	bd80      	pop	{r7, pc}

080017ac <HAL_CAN_ConfigFilter>:
  * @param  sFilterConfig pointer to a CAN_FilterTypeDef structure that
  *         contains the filter configuration information.
  * @retval None
  */
HAL_StatusTypeDef HAL_CAN_ConfigFilter(CAN_HandleTypeDef *hcan, CAN_FilterTypeDef *sFilterConfig)
{
 80017ac:	b580      	push	{r7, lr}
 80017ae:	b086      	sub	sp, #24
 80017b0:	af00      	add	r7, sp, #0
 80017b2:	6078      	str	r0, [r7, #4]
 80017b4:	6039      	str	r1, [r7, #0]
  uint32_t filternbrbitpos;
  CAN_TypeDef *can_ip = hcan->Instance;
 80017b6:	687b      	ldr	r3, [r7, #4]
 80017b8:	681b      	ldr	r3, [r3, #0]
 80017ba:	617b      	str	r3, [r7, #20]
  HAL_CAN_StateTypeDef state = hcan->State;
 80017bc:	2013      	movs	r0, #19
 80017be:	183b      	adds	r3, r7, r0
 80017c0:	687a      	ldr	r2, [r7, #4]
 80017c2:	2120      	movs	r1, #32
 80017c4:	5c52      	ldrb	r2, [r2, r1]
 80017c6:	701a      	strb	r2, [r3, #0]

  if ((state == HAL_CAN_STATE_READY) ||
 80017c8:	183b      	adds	r3, r7, r0
 80017ca:	781b      	ldrb	r3, [r3, #0]
 80017cc:	2b01      	cmp	r3, #1
 80017ce:	d005      	beq.n	80017dc <HAL_CAN_ConfigFilter+0x30>
 80017d0:	2313      	movs	r3, #19
 80017d2:	18fb      	adds	r3, r7, r3
 80017d4:	781b      	ldrb	r3, [r3, #0]
 80017d6:	2b02      	cmp	r3, #2
 80017d8:	d000      	beq.n	80017dc <HAL_CAN_ConfigFilter+0x30>
 80017da:	e0cd      	b.n	8001978 <HAL_CAN_ConfigFilter+0x1cc>

    /* Check the parameters */
    assert_param(IS_CAN_FILTER_BANK_SINGLE(sFilterConfig->FilterBank));

    /* Initialisation mode for the filter */
    SET_BIT(can_ip->FMR, CAN_FMR_FINIT);
 80017dc:	697a      	ldr	r2, [r7, #20]
 80017de:	2380      	movs	r3, #128	; 0x80
 80017e0:	009b      	lsls	r3, r3, #2
 80017e2:	58d3      	ldr	r3, [r2, r3]
 80017e4:	2201      	movs	r2, #1
 80017e6:	431a      	orrs	r2, r3
 80017e8:	0011      	movs	r1, r2
 80017ea:	697a      	ldr	r2, [r7, #20]
 80017ec:	2380      	movs	r3, #128	; 0x80
 80017ee:	009b      	lsls	r3, r3, #2
 80017f0:	50d1      	str	r1, [r2, r3]

    /* Convert filter number into bit position */
    filternbrbitpos = (uint32_t)1 << (sFilterConfig->FilterBank & 0x1FU);
 80017f2:	683b      	ldr	r3, [r7, #0]
 80017f4:	695b      	ldr	r3, [r3, #20]
 80017f6:	221f      	movs	r2, #31
 80017f8:	4013      	ands	r3, r2
 80017fa:	2201      	movs	r2, #1
 80017fc:	409a      	lsls	r2, r3
 80017fe:	0013      	movs	r3, r2
 8001800:	60fb      	str	r3, [r7, #12]

    /* Filter Deactivation */
    CLEAR_BIT(can_ip->FA1R, filternbrbitpos);
 8001802:	697a      	ldr	r2, [r7, #20]
 8001804:	2387      	movs	r3, #135	; 0x87
 8001806:	009b      	lsls	r3, r3, #2
 8001808:	58d3      	ldr	r3, [r2, r3]
 800180a:	68fa      	ldr	r2, [r7, #12]
 800180c:	43d2      	mvns	r2, r2
 800180e:	401a      	ands	r2, r3
 8001810:	0011      	movs	r1, r2
 8001812:	697a      	ldr	r2, [r7, #20]
 8001814:	2387      	movs	r3, #135	; 0x87
 8001816:	009b      	lsls	r3, r3, #2
 8001818:	50d1      	str	r1, [r2, r3]

    /* Filter Scale */
    if (sFilterConfig->FilterScale == CAN_FILTERSCALE_16BIT)
 800181a:	683b      	ldr	r3, [r7, #0]
 800181c:	69db      	ldr	r3, [r3, #28]
 800181e:	2b00      	cmp	r3, #0
 8001820:	d129      	bne.n	8001876 <HAL_CAN_ConfigFilter+0xca>
    {
      /* 16-bit scale for the filter */
      CLEAR_BIT(can_ip->FS1R, filternbrbitpos);
 8001822:	697a      	ldr	r2, [r7, #20]
 8001824:	2383      	movs	r3, #131	; 0x83
 8001826:	009b      	lsls	r3, r3, #2
 8001828:	58d3      	ldr	r3, [r2, r3]
 800182a:	68fa      	ldr	r2, [r7, #12]
 800182c:	43d2      	mvns	r2, r2
 800182e:	401a      	ands	r2, r3
 8001830:	0011      	movs	r1, r2
 8001832:	697a      	ldr	r2, [r7, #20]
 8001834:	2383      	movs	r3, #131	; 0x83
 8001836:	009b      	lsls	r3, r3, #2
 8001838:	50d1      	str	r1, [r2, r3]

      /* First 16-bit identifier and First 16-bit mask */
      /* Or First 16-bit identifier and Second 16-bit identifier */
      can_ip->sFilterRegister[sFilterConfig->FilterBank].FR1 =
        ((0x0000FFFFU & (uint32_t)sFilterConfig->FilterMaskIdLow) << 16U) |
 800183a:	683b      	ldr	r3, [r7, #0]
 800183c:	68db      	ldr	r3, [r3, #12]
 800183e:	0418      	lsls	r0, r3, #16
        (0x0000FFFFU & (uint32_t)sFilterConfig->FilterIdLow);
 8001840:	683b      	ldr	r3, [r7, #0]
 8001842:	685b      	ldr	r3, [r3, #4]
 8001844:	041b      	lsls	r3, r3, #16
 8001846:	0c19      	lsrs	r1, r3, #16
      can_ip->sFilterRegister[sFilterConfig->FilterBank].FR1 =
 8001848:	683b      	ldr	r3, [r7, #0]
 800184a:	695a      	ldr	r2, [r3, #20]
        ((0x0000FFFFU & (uint32_t)sFilterConfig->FilterMaskIdLow) << 16U) |
 800184c:	4301      	orrs	r1, r0
      can_ip->sFilterRegister[sFilterConfig->FilterBank].FR1 =
 800184e:	697b      	ldr	r3, [r7, #20]
 8001850:	3248      	adds	r2, #72	; 0x48
 8001852:	00d2      	lsls	r2, r2, #3
 8001854:	50d1      	str	r1, [r2, r3]

      /* Second 16-bit identifier and Second 16-bit mask */
      /* Or Third 16-bit identifier and Fourth 16-bit identifier */
      can_ip->sFilterRegister[sFilterConfig->FilterBank].FR2 =
        ((0x0000FFFFU & (uint32_t)sFilterConfig->FilterMaskIdHigh) << 16U) |
 8001856:	683b      	ldr	r3, [r7, #0]
 8001858:	689b      	ldr	r3, [r3, #8]
 800185a:	0419      	lsls	r1, r3, #16
        (0x0000FFFFU & (uint32_t)sFilterConfig->FilterIdHigh);
 800185c:	683b      	ldr	r3, [r7, #0]
 800185e:	681b      	ldr	r3, [r3, #0]
 8001860:	041b      	lsls	r3, r3, #16
 8001862:	0c1a      	lsrs	r2, r3, #16
      can_ip->sFilterRegister[sFilterConfig->FilterBank].FR2 =
 8001864:	683b      	ldr	r3, [r7, #0]
 8001866:	695b      	ldr	r3, [r3, #20]
        ((0x0000FFFFU & (uint32_t)sFilterConfig->FilterMaskIdHigh) << 16U) |
 8001868:	430a      	orrs	r2, r1
      can_ip->sFilterRegister[sFilterConfig->FilterBank].FR2 =
 800186a:	6979      	ldr	r1, [r7, #20]
 800186c:	3348      	adds	r3, #72	; 0x48
 800186e:	00db      	lsls	r3, r3, #3
 8001870:	18cb      	adds	r3, r1, r3
 8001872:	3304      	adds	r3, #4
 8001874:	601a      	str	r2, [r3, #0]
    }

    if (sFilterConfig->FilterScale == CAN_FILTERSCALE_32BIT)
 8001876:	683b      	ldr	r3, [r7, #0]
 8001878:	69db      	ldr	r3, [r3, #28]
 800187a:	2b01      	cmp	r3, #1
 800187c:	d128      	bne.n	80018d0 <HAL_CAN_ConfigFilter+0x124>
    {
      /* 32-bit scale for the filter */
      SET_BIT(can_ip->FS1R, filternbrbitpos);
 800187e:	697a      	ldr	r2, [r7, #20]
 8001880:	2383      	movs	r3, #131	; 0x83
 8001882:	009b      	lsls	r3, r3, #2
 8001884:	58d2      	ldr	r2, [r2, r3]
 8001886:	68fb      	ldr	r3, [r7, #12]
 8001888:	431a      	orrs	r2, r3
 800188a:	0011      	movs	r1, r2
 800188c:	697a      	ldr	r2, [r7, #20]
 800188e:	2383      	movs	r3, #131	; 0x83
 8001890:	009b      	lsls	r3, r3, #2
 8001892:	50d1      	str	r1, [r2, r3]

      /* 32-bit identifier or First 32-bit identifier */
      can_ip->sFilterRegister[sFilterConfig->FilterBank].FR1 =
        ((0x0000FFFFU & (uint32_t)sFilterConfig->FilterIdHigh) << 16U) |
 8001894:	683b      	ldr	r3, [r7, #0]
 8001896:	681b      	ldr	r3, [r3, #0]
 8001898:	0418      	lsls	r0, r3, #16
        (0x0000FFFFU & (uint32_t)sFilterConfig->FilterIdLow);
 800189a:	683b      	ldr	r3, [r7, #0]
 800189c:	685b      	ldr	r3, [r3, #4]
 800189e:	041b      	lsls	r3, r3, #16
 80018a0:	0c19      	lsrs	r1, r3, #16
      can_ip->sFilterRegister[sFilterConfig->FilterBank].FR1 =
 80018a2:	683b      	ldr	r3, [r7, #0]
 80018a4:	695a      	ldr	r2, [r3, #20]
        ((0x0000FFFFU & (uint32_t)sFilterConfig->FilterIdHigh) << 16U) |
 80018a6:	4301      	orrs	r1, r0
      can_ip->sFilterRegister[sFilterConfig->FilterBank].FR1 =
 80018a8:	697b      	ldr	r3, [r7, #20]
 80018aa:	3248      	adds	r2, #72	; 0x48
 80018ac:	00d2      	lsls	r2, r2, #3
 80018ae:	50d1      	str	r1, [r2, r3]

      /* 32-bit mask or Second 32-bit identifier */
      can_ip->sFilterRegister[sFilterConfig->FilterBank].FR2 =
        ((0x0000FFFFU & (uint32_t)sFilterConfig->FilterMaskIdHigh) << 16U) |
 80018b0:	683b      	ldr	r3, [r7, #0]
 80018b2:	689b      	ldr	r3, [r3, #8]
 80018b4:	0419      	lsls	r1, r3, #16
        (0x0000FFFFU & (uint32_t)sFilterConfig->FilterMaskIdLow);
 80018b6:	683b      	ldr	r3, [r7, #0]
 80018b8:	68db      	ldr	r3, [r3, #12]
 80018ba:	041b      	lsls	r3, r3, #16
 80018bc:	0c1a      	lsrs	r2, r3, #16
      can_ip->sFilterRegister[sFilterConfig->FilterBank].FR2 =
 80018be:	683b      	ldr	r3, [r7, #0]
 80018c0:	695b      	ldr	r3, [r3, #20]
        ((0x0000FFFFU & (uint32_t)sFilterConfig->FilterMaskIdHigh) << 16U) |
 80018c2:	430a      	orrs	r2, r1
      can_ip->sFilterRegister[sFilterConfig->FilterBank].FR2 =
 80018c4:	6979      	ldr	r1, [r7, #20]
 80018c6:	3348      	adds	r3, #72	; 0x48
 80018c8:	00db      	lsls	r3, r3, #3
 80018ca:	18cb      	adds	r3, r1, r3
 80018cc:	3304      	adds	r3, #4
 80018ce:	601a      	str	r2, [r3, #0]
    }

    /* Filter Mode */
    if (sFilterConfig->FilterMode == CAN_FILTERMODE_IDMASK)
 80018d0:	683b      	ldr	r3, [r7, #0]
 80018d2:	699b      	ldr	r3, [r3, #24]
 80018d4:	2b00      	cmp	r3, #0
 80018d6:	d10c      	bne.n	80018f2 <HAL_CAN_ConfigFilter+0x146>
    {
      /* Id/Mask mode for the filter*/
      CLEAR_BIT(can_ip->FM1R, filternbrbitpos);
 80018d8:	697a      	ldr	r2, [r7, #20]
 80018da:	2381      	movs	r3, #129	; 0x81
 80018dc:	009b      	lsls	r3, r3, #2
 80018de:	58d3      	ldr	r3, [r2, r3]
 80018e0:	68fa      	ldr	r2, [r7, #12]
 80018e2:	43d2      	mvns	r2, r2
 80018e4:	401a      	ands	r2, r3
 80018e6:	0011      	movs	r1, r2
 80018e8:	697a      	ldr	r2, [r7, #20]
 80018ea:	2381      	movs	r3, #129	; 0x81
 80018ec:	009b      	lsls	r3, r3, #2
 80018ee:	50d1      	str	r1, [r2, r3]
 80018f0:	e00a      	b.n	8001908 <HAL_CAN_ConfigFilter+0x15c>
    }
    else /* CAN_FilterInitStruct->CAN_FilterMode == CAN_FilterMode_IdList */
    {
      /* Identifier list mode for the filter*/
      SET_BIT(can_ip->FM1R, filternbrbitpos);
 80018f2:	697a      	ldr	r2, [r7, #20]
 80018f4:	2381      	movs	r3, #129	; 0x81
 80018f6:	009b      	lsls	r3, r3, #2
 80018f8:	58d2      	ldr	r2, [r2, r3]
 80018fa:	68fb      	ldr	r3, [r7, #12]
 80018fc:	431a      	orrs	r2, r3
 80018fe:	0011      	movs	r1, r2
 8001900:	697a      	ldr	r2, [r7, #20]
 8001902:	2381      	movs	r3, #129	; 0x81
 8001904:	009b      	lsls	r3, r3, #2
 8001906:	50d1      	str	r1, [r2, r3]
    }

    /* Filter FIFO assignment */
    if (sFilterConfig->FilterFIFOAssignment == CAN_FILTER_FIFO0)
 8001908:	683b      	ldr	r3, [r7, #0]
 800190a:	691b      	ldr	r3, [r3, #16]
 800190c:	2b00      	cmp	r3, #0
 800190e:	d10c      	bne.n	800192a <HAL_CAN_ConfigFilter+0x17e>
    {
      /* FIFO 0 assignation for the filter */
      CLEAR_BIT(can_ip->FFA1R, filternbrbitpos);
 8001910:	697a      	ldr	r2, [r7, #20]
 8001912:	2385      	movs	r3, #133	; 0x85
 8001914:	009b      	lsls	r3, r3, #2
 8001916:	58d3      	ldr	r3, [r2, r3]
 8001918:	68fa      	ldr	r2, [r7, #12]
 800191a:	43d2      	mvns	r2, r2
 800191c:	401a      	ands	r2, r3
 800191e:	0011      	movs	r1, r2
 8001920:	697a      	ldr	r2, [r7, #20]
 8001922:	2385      	movs	r3, #133	; 0x85
 8001924:	009b      	lsls	r3, r3, #2
 8001926:	50d1      	str	r1, [r2, r3]
 8001928:	e00a      	b.n	8001940 <HAL_CAN_ConfigFilter+0x194>
    }
    else
    {
      /* FIFO 1 assignation for the filter */
      SET_BIT(can_ip->FFA1R, filternbrbitpos);
 800192a:	697a      	ldr	r2, [r7, #20]
 800192c:	2385      	movs	r3, #133	; 0x85
 800192e:	009b      	lsls	r3, r3, #2
 8001930:	58d2      	ldr	r2, [r2, r3]
 8001932:	68fb      	ldr	r3, [r7, #12]
 8001934:	431a      	orrs	r2, r3
 8001936:	0011      	movs	r1, r2
 8001938:	697a      	ldr	r2, [r7, #20]
 800193a:	2385      	movs	r3, #133	; 0x85
 800193c:	009b      	lsls	r3, r3, #2
 800193e:	50d1      	str	r1, [r2, r3]
    }

    /* Filter activation */
    if (sFilterConfig->FilterActivation == CAN_FILTER_ENABLE)
 8001940:	683b      	ldr	r3, [r7, #0]
 8001942:	6a1b      	ldr	r3, [r3, #32]
 8001944:	2b01      	cmp	r3, #1
 8001946:	d10a      	bne.n	800195e <HAL_CAN_ConfigFilter+0x1b2>
    {
      SET_BIT(can_ip->FA1R, filternbrbitpos);
 8001948:	697a      	ldr	r2, [r7, #20]
 800194a:	2387      	movs	r3, #135	; 0x87
 800194c:	009b      	lsls	r3, r3, #2
 800194e:	58d2      	ldr	r2, [r2, r3]
 8001950:	68fb      	ldr	r3, [r7, #12]
 8001952:	431a      	orrs	r2, r3
 8001954:	0011      	movs	r1, r2
 8001956:	697a      	ldr	r2, [r7, #20]
 8001958:	2387      	movs	r3, #135	; 0x87
 800195a:	009b      	lsls	r3, r3, #2
 800195c:	50d1      	str	r1, [r2, r3]
    }

    /* Leave the initialisation mode for the filter */
    CLEAR_BIT(can_ip->FMR, CAN_FMR_FINIT);
 800195e:	697a      	ldr	r2, [r7, #20]
 8001960:	2380      	movs	r3, #128	; 0x80
 8001962:	009b      	lsls	r3, r3, #2
 8001964:	58d3      	ldr	r3, [r2, r3]
 8001966:	2201      	movs	r2, #1
 8001968:	4393      	bics	r3, r2
 800196a:	0019      	movs	r1, r3
 800196c:	697a      	ldr	r2, [r7, #20]
 800196e:	2380      	movs	r3, #128	; 0x80
 8001970:	009b      	lsls	r3, r3, #2
 8001972:	50d1      	str	r1, [r2, r3]

    /* Return function status */
    return HAL_OK;
 8001974:	2300      	movs	r3, #0
 8001976:	e007      	b.n	8001988 <HAL_CAN_ConfigFilter+0x1dc>
  }
  else
  {
    /* Update error code */
    hcan->ErrorCode |= HAL_CAN_ERROR_NOT_INITIALIZED;
 8001978:	687b      	ldr	r3, [r7, #4]
 800197a:	6a5b      	ldr	r3, [r3, #36]	; 0x24
 800197c:	2280      	movs	r2, #128	; 0x80
 800197e:	02d2      	lsls	r2, r2, #11
 8001980:	431a      	orrs	r2, r3
 8001982:	687b      	ldr	r3, [r7, #4]
 8001984:	625a      	str	r2, [r3, #36]	; 0x24

    return HAL_ERROR;
 8001986:	2301      	movs	r3, #1
  }
}
 8001988:	0018      	movs	r0, r3
 800198a:	46bd      	mov	sp, r7
 800198c:	b006      	add	sp, #24
 800198e:	bd80      	pop	{r7, pc}

08001990 <HAL_CAN_Start>:
  * @param  hcan pointer to an CAN_HandleTypeDef structure that contains
  *         the configuration information for the specified CAN.
  * @retval HAL status
  */
HAL_StatusTypeDef HAL_CAN_Start(CAN_HandleTypeDef *hcan)
{
 8001990:	b580      	push	{r7, lr}
 8001992:	b084      	sub	sp, #16
 8001994:	af00      	add	r7, sp, #0
 8001996:	6078      	str	r0, [r7, #4]
  uint32_t tickstart;

  if (hcan->State == HAL_CAN_STATE_READY)
 8001998:	687b      	ldr	r3, [r7, #4]
 800199a:	2220      	movs	r2, #32
 800199c:	5c9b      	ldrb	r3, [r3, r2]
 800199e:	b2db      	uxtb	r3, r3
 80019a0:	2b01      	cmp	r3, #1
 80019a2:	d12f      	bne.n	8001a04 <HAL_CAN_Start+0x74>
  {
    /* Change CAN peripheral state */
    hcan->State = HAL_CAN_STATE_LISTENING;
 80019a4:	687b      	ldr	r3, [r7, #4]
 80019a6:	2220      	movs	r2, #32
 80019a8:	2102      	movs	r1, #2
 80019aa:	5499      	strb	r1, [r3, r2]

    /* Request leave initialisation */
    CLEAR_BIT(hcan->Instance->MCR, CAN_MCR_INRQ);
 80019ac:	687b      	ldr	r3, [r7, #4]
 80019ae:	681b      	ldr	r3, [r3, #0]
 80019b0:	681a      	ldr	r2, [r3, #0]
 80019b2:	687b      	ldr	r3, [r7, #4]
 80019b4:	681b      	ldr	r3, [r3, #0]
 80019b6:	2101      	movs	r1, #1
 80019b8:	438a      	bics	r2, r1
 80019ba:	601a      	str	r2, [r3, #0]

    /* Get tick */
    tickstart = HAL_GetTick();
 80019bc:	f7ff fdee 	bl	800159c <HAL_GetTick>
 80019c0:	0003      	movs	r3, r0
 80019c2:	60fb      	str	r3, [r7, #12]

    /* Wait the acknowledge */
    while ((hcan->Instance->MSR & CAN_MSR_INAK) != 0U)
 80019c4:	e013      	b.n	80019ee <HAL_CAN_Start+0x5e>
    {
      /* Check for the Timeout */
      if ((HAL_GetTick() - tickstart) > CAN_TIMEOUT_VALUE)
 80019c6:	f7ff fde9 	bl	800159c <HAL_GetTick>
 80019ca:	0002      	movs	r2, r0
 80019cc:	68fb      	ldr	r3, [r7, #12]
 80019ce:	1ad3      	subs	r3, r2, r3
 80019d0:	2b0a      	cmp	r3, #10
 80019d2:	d90c      	bls.n	80019ee <HAL_CAN_Start+0x5e>
      {
        /* Update error code */
        hcan->ErrorCode |= HAL_CAN_ERROR_TIMEOUT;
 80019d4:	687b      	ldr	r3, [r7, #4]
 80019d6:	6a5b      	ldr	r3, [r3, #36]	; 0x24
 80019d8:	2280      	movs	r2, #128	; 0x80
 80019da:	0292      	lsls	r2, r2, #10
 80019dc:	431a      	orrs	r2, r3
 80019de:	687b      	ldr	r3, [r7, #4]
 80019e0:	625a      	str	r2, [r3, #36]	; 0x24

        /* Change CAN state */
        hcan->State = HAL_CAN_STATE_ERROR;
 80019e2:	687b      	ldr	r3, [r7, #4]
 80019e4:	2220      	movs	r2, #32
 80019e6:	2105      	movs	r1, #5
 80019e8:	5499      	strb	r1, [r3, r2]

        return HAL_ERROR;
 80019ea:	2301      	movs	r3, #1
 80019ec:	e012      	b.n	8001a14 <HAL_CAN_Start+0x84>
    while ((hcan->Instance->MSR & CAN_MSR_INAK) != 0U)
 80019ee:	687b      	ldr	r3, [r7, #4]
 80019f0:	681b      	ldr	r3, [r3, #0]
 80019f2:	685b      	ldr	r3, [r3, #4]
 80019f4:	2201      	movs	r2, #1
 80019f6:	4013      	ands	r3, r2
 80019f8:	d1e5      	bne.n	80019c6 <HAL_CAN_Start+0x36>
      }
    }

    /* Reset the CAN ErrorCode */
    hcan->ErrorCode = HAL_CAN_ERROR_NONE;
 80019fa:	687b      	ldr	r3, [r7, #4]
 80019fc:	2200      	movs	r2, #0
 80019fe:	625a      	str	r2, [r3, #36]	; 0x24

    /* Return function status */
    return HAL_OK;
 8001a00:	2300      	movs	r3, #0
 8001a02:	e007      	b.n	8001a14 <HAL_CAN_Start+0x84>
  }
  else
  {
    /* Update error code */
    hcan->ErrorCode |= HAL_CAN_ERROR_NOT_READY;
 8001a04:	687b      	ldr	r3, [r7, #4]
 8001a06:	6a5b      	ldr	r3, [r3, #36]	; 0x24
 8001a08:	2280      	movs	r2, #128	; 0x80
 8001a0a:	0312      	lsls	r2, r2, #12
 8001a0c:	431a      	orrs	r2, r3
 8001a0e:	687b      	ldr	r3, [r7, #4]
 8001a10:	625a      	str	r2, [r3, #36]	; 0x24

    return HAL_ERROR;
 8001a12:	2301      	movs	r3, #1
  }
}
 8001a14:	0018      	movs	r0, r3
 8001a16:	46bd      	mov	sp, r7
 8001a18:	b004      	add	sp, #16
 8001a1a:	bd80      	pop	{r7, pc}

08001a1c <HAL_CAN_ActivateNotification>:
  * @param  ActiveITs indicates which interrupts will be enabled.
  *         This parameter can be any combination of @arg CAN_Interrupts.
  * @retval HAL status
  */
HAL_StatusTypeDef HAL_CAN_ActivateNotification(CAN_HandleTypeDef *hcan, uint32_t ActiveITs)
{
 8001a1c:	b580      	push	{r7, lr}
 8001a1e:	b084      	sub	sp, #16
 8001a20:	af00      	add	r7, sp, #0
 8001a22:	6078      	str	r0, [r7, #4]
 8001a24:	6039      	str	r1, [r7, #0]
  HAL_CAN_StateTypeDef state = hcan->State;
 8001a26:	200f      	movs	r0, #15
 8001a28:	183b      	adds	r3, r7, r0
 8001a2a:	687a      	ldr	r2, [r7, #4]
 8001a2c:	2120      	movs	r1, #32
 8001a2e:	5c52      	ldrb	r2, [r2, r1]
 8001a30:	701a      	strb	r2, [r3, #0]

  /* Check function parameters */
  assert_param(IS_CAN_IT(ActiveITs));

  if ((state == HAL_CAN_STATE_READY) ||
 8001a32:	183b      	adds	r3, r7, r0
 8001a34:	781b      	ldrb	r3, [r3, #0]
 8001a36:	2b01      	cmp	r3, #1
 8001a38:	d004      	beq.n	8001a44 <HAL_CAN_ActivateNotification+0x28>
 8001a3a:	230f      	movs	r3, #15
 8001a3c:	18fb      	adds	r3, r7, r3
 8001a3e:	781b      	ldrb	r3, [r3, #0]
 8001a40:	2b02      	cmp	r3, #2
 8001a42:	d109      	bne.n	8001a58 <HAL_CAN_ActivateNotification+0x3c>
      (state == HAL_CAN_STATE_LISTENING))
  {
    /* Enable the selected interrupts */
    __HAL_CAN_ENABLE_IT(hcan, ActiveITs);
 8001a44:	687b      	ldr	r3, [r7, #4]
 8001a46:	681b      	ldr	r3, [r3, #0]
 8001a48:	6959      	ldr	r1, [r3, #20]
 8001a4a:	687b      	ldr	r3, [r7, #4]
 8001a4c:	681b      	ldr	r3, [r3, #0]
 8001a4e:	683a      	ldr	r2, [r7, #0]
 8001a50:	430a      	orrs	r2, r1
 8001a52:	615a      	str	r2, [r3, #20]

    /* Return function status */
    return HAL_OK;
 8001a54:	2300      	movs	r3, #0
 8001a56:	e007      	b.n	8001a68 <HAL_CAN_ActivateNotification+0x4c>
  }
  else
  {
    /* Update error code */
    hcan->ErrorCode |= HAL_CAN_ERROR_NOT_INITIALIZED;
 8001a58:	687b      	ldr	r3, [r7, #4]
 8001a5a:	6a5b      	ldr	r3, [r3, #36]	; 0x24
 8001a5c:	2280      	movs	r2, #128	; 0x80
 8001a5e:	02d2      	lsls	r2, r2, #11
 8001a60:	431a      	orrs	r2, r3
 8001a62:	687b      	ldr	r3, [r7, #4]
 8001a64:	625a      	str	r2, [r3, #36]	; 0x24

    return HAL_ERROR;
 8001a66:	2301      	movs	r3, #1
  }
}
 8001a68:	0018      	movs	r0, r3
 8001a6a:	46bd      	mov	sp, r7
 8001a6c:	b004      	add	sp, #16
 8001a6e:	bd80      	pop	{r7, pc}

08001a70 <__NVIC_EnableIRQ>:
  \details Enables a device specific interrupt in the NVIC interrupt controller.
  \param [in]      IRQn  Device specific interrupt number.
  \note    IRQn must not be negative.
 */
__STATIC_INLINE void __NVIC_EnableIRQ(IRQn_Type IRQn)
{
 8001a70:	b580      	push	{r7, lr}
 8001a72:	b082      	sub	sp, #8
 8001a74:	af00      	add	r7, sp, #0
 8001a76:	0002      	movs	r2, r0
 8001a78:	1dfb      	adds	r3, r7, #7
 8001a7a:	701a      	strb	r2, [r3, #0]
  if ((int32_t)(IRQn) >= 0)
 8001a7c:	1dfb      	adds	r3, r7, #7
 8001a7e:	781b      	ldrb	r3, [r3, #0]
 8001a80:	2b7f      	cmp	r3, #127	; 0x7f
 8001a82:	d809      	bhi.n	8001a98 <__NVIC_EnableIRQ+0x28>
  {
    NVIC->ISER[0U] = (uint32_t)(1UL << (((uint32_t)IRQn) & 0x1FUL));
 8001a84:	1dfb      	adds	r3, r7, #7
 8001a86:	781b      	ldrb	r3, [r3, #0]
 8001a88:	001a      	movs	r2, r3
 8001a8a:	231f      	movs	r3, #31
 8001a8c:	401a      	ands	r2, r3
 8001a8e:	4b04      	ldr	r3, [pc, #16]	; (8001aa0 <__NVIC_EnableIRQ+0x30>)
 8001a90:	2101      	movs	r1, #1
 8001a92:	4091      	lsls	r1, r2
 8001a94:	000a      	movs	r2, r1
 8001a96:	601a      	str	r2, [r3, #0]
  }
}
 8001a98:	46c0      	nop			; (mov r8, r8)
 8001a9a:	46bd      	mov	sp, r7
 8001a9c:	b002      	add	sp, #8
 8001a9e:	bd80      	pop	{r7, pc}
 8001aa0:	e000e100 	.word	0xe000e100

08001aa4 <__NVIC_SetPriority>:
  \param [in]      IRQn  Interrupt number.
  \param [in]  priority  Priority to set.
  \note    The priority cannot be set for every processor exception.
 */
__STATIC_INLINE void __NVIC_SetPriority(IRQn_Type IRQn, uint32_t priority)
{
 8001aa4:	b590      	push	{r4, r7, lr}
 8001aa6:	b083      	sub	sp, #12
 8001aa8:	af00      	add	r7, sp, #0
 8001aaa:	0002      	movs	r2, r0
 8001aac:	6039      	str	r1, [r7, #0]
 8001aae:	1dfb      	adds	r3, r7, #7
 8001ab0:	701a      	strb	r2, [r3, #0]
  if ((int32_t)(IRQn) >= 0)
 8001ab2:	1dfb      	adds	r3, r7, #7
 8001ab4:	781b      	ldrb	r3, [r3, #0]
 8001ab6:	2b7f      	cmp	r3, #127	; 0x7f
 8001ab8:	d828      	bhi.n	8001b0c <__NVIC_SetPriority+0x68>
  {
    NVIC->IP[_IP_IDX(IRQn)]  = ((uint32_t)(NVIC->IP[_IP_IDX(IRQn)]  & ~(0xFFUL << _BIT_SHIFT(IRQn))) |
 8001aba:	4a2f      	ldr	r2, [pc, #188]	; (8001b78 <__NVIC_SetPriority+0xd4>)
 8001abc:	1dfb      	adds	r3, r7, #7
 8001abe:	781b      	ldrb	r3, [r3, #0]
 8001ac0:	b25b      	sxtb	r3, r3
 8001ac2:	089b      	lsrs	r3, r3, #2
 8001ac4:	33c0      	adds	r3, #192	; 0xc0
 8001ac6:	009b      	lsls	r3, r3, #2
 8001ac8:	589b      	ldr	r3, [r3, r2]
 8001aca:	1dfa      	adds	r2, r7, #7
 8001acc:	7812      	ldrb	r2, [r2, #0]
 8001ace:	0011      	movs	r1, r2
 8001ad0:	2203      	movs	r2, #3
 8001ad2:	400a      	ands	r2, r1
 8001ad4:	00d2      	lsls	r2, r2, #3
 8001ad6:	21ff      	movs	r1, #255	; 0xff
 8001ad8:	4091      	lsls	r1, r2
 8001ada:	000a      	movs	r2, r1
 8001adc:	43d2      	mvns	r2, r2
 8001ade:	401a      	ands	r2, r3
 8001ae0:	0011      	movs	r1, r2
       (((priority << (8U - __NVIC_PRIO_BITS)) & (uint32_t)0xFFUL) << _BIT_SHIFT(IRQn)));
 8001ae2:	683b      	ldr	r3, [r7, #0]
 8001ae4:	019b      	lsls	r3, r3, #6
 8001ae6:	22ff      	movs	r2, #255	; 0xff
 8001ae8:	401a      	ands	r2, r3
 8001aea:	1dfb      	adds	r3, r7, #7
 8001aec:	781b      	ldrb	r3, [r3, #0]
 8001aee:	0018      	movs	r0, r3
 8001af0:	2303      	movs	r3, #3
 8001af2:	4003      	ands	r3, r0
 8001af4:	00db      	lsls	r3, r3, #3
 8001af6:	409a      	lsls	r2, r3
    NVIC->IP[_IP_IDX(IRQn)]  = ((uint32_t)(NVIC->IP[_IP_IDX(IRQn)]  & ~(0xFFUL << _BIT_SHIFT(IRQn))) |
 8001af8:	481f      	ldr	r0, [pc, #124]	; (8001b78 <__NVIC_SetPriority+0xd4>)
 8001afa:	1dfb      	adds	r3, r7, #7
 8001afc:	781b      	ldrb	r3, [r3, #0]
 8001afe:	b25b      	sxtb	r3, r3
 8001b00:	089b      	lsrs	r3, r3, #2
 8001b02:	430a      	orrs	r2, r1
 8001b04:	33c0      	adds	r3, #192	; 0xc0
 8001b06:	009b      	lsls	r3, r3, #2
 8001b08:	501a      	str	r2, [r3, r0]
  else
  {
    SCB->SHP[_SHP_IDX(IRQn)] = ((uint32_t)(SCB->SHP[_SHP_IDX(IRQn)] & ~(0xFFUL << _BIT_SHIFT(IRQn))) |
       (((priority << (8U - __NVIC_PRIO_BITS)) & (uint32_t)0xFFUL) << _BIT_SHIFT(IRQn)));
  }
}
 8001b0a:	e031      	b.n	8001b70 <__NVIC_SetPriority+0xcc>
    SCB->SHP[_SHP_IDX(IRQn)] = ((uint32_t)(SCB->SHP[_SHP_IDX(IRQn)] & ~(0xFFUL << _BIT_SHIFT(IRQn))) |
 8001b0c:	4a1b      	ldr	r2, [pc, #108]	; (8001b7c <__NVIC_SetPriority+0xd8>)
 8001b0e:	1dfb      	adds	r3, r7, #7
 8001b10:	781b      	ldrb	r3, [r3, #0]
 8001b12:	0019      	movs	r1, r3
 8001b14:	230f      	movs	r3, #15
 8001b16:	400b      	ands	r3, r1
 8001b18:	3b08      	subs	r3, #8
 8001b1a:	089b      	lsrs	r3, r3, #2
 8001b1c:	3306      	adds	r3, #6
 8001b1e:	009b      	lsls	r3, r3, #2
 8001b20:	18d3      	adds	r3, r2, r3
 8001b22:	3304      	adds	r3, #4
 8001b24:	681b      	ldr	r3, [r3, #0]
 8001b26:	1dfa      	adds	r2, r7, #7
 8001b28:	7812      	ldrb	r2, [r2, #0]
 8001b2a:	0011      	movs	r1, r2
 8001b2c:	2203      	movs	r2, #3
 8001b2e:	400a      	ands	r2, r1
 8001b30:	00d2      	lsls	r2, r2, #3
 8001b32:	21ff      	movs	r1, #255	; 0xff
 8001b34:	4091      	lsls	r1, r2
 8001b36:	000a      	movs	r2, r1
 8001b38:	43d2      	mvns	r2, r2
 8001b3a:	401a      	ands	r2, r3
 8001b3c:	0011      	movs	r1, r2
       (((priority << (8U - __NVIC_PRIO_BITS)) & (uint32_t)0xFFUL) << _BIT_SHIFT(IRQn)));
 8001b3e:	683b      	ldr	r3, [r7, #0]
 8001b40:	019b      	lsls	r3, r3, #6
 8001b42:	22ff      	movs	r2, #255	; 0xff
 8001b44:	401a      	ands	r2, r3
 8001b46:	1dfb      	adds	r3, r7, #7
 8001b48:	781b      	ldrb	r3, [r3, #0]
 8001b4a:	0018      	movs	r0, r3
 8001b4c:	2303      	movs	r3, #3
 8001b4e:	4003      	ands	r3, r0
 8001b50:	00db      	lsls	r3, r3, #3
 8001b52:	409a      	lsls	r2, r3
    SCB->SHP[_SHP_IDX(IRQn)] = ((uint32_t)(SCB->SHP[_SHP_IDX(IRQn)] & ~(0xFFUL << _BIT_SHIFT(IRQn))) |
 8001b54:	4809      	ldr	r0, [pc, #36]	; (8001b7c <__NVIC_SetPriority+0xd8>)
 8001b56:	1dfb      	adds	r3, r7, #7
 8001b58:	781b      	ldrb	r3, [r3, #0]
 8001b5a:	001c      	movs	r4, r3
 8001b5c:	230f      	movs	r3, #15
 8001b5e:	4023      	ands	r3, r4
 8001b60:	3b08      	subs	r3, #8
 8001b62:	089b      	lsrs	r3, r3, #2
 8001b64:	430a      	orrs	r2, r1
 8001b66:	3306      	adds	r3, #6
 8001b68:	009b      	lsls	r3, r3, #2
 8001b6a:	18c3      	adds	r3, r0, r3
 8001b6c:	3304      	adds	r3, #4
 8001b6e:	601a      	str	r2, [r3, #0]
}
 8001b70:	46c0      	nop			; (mov r8, r8)
 8001b72:	46bd      	mov	sp, r7
 8001b74:	b003      	add	sp, #12
 8001b76:	bd90      	pop	{r4, r7, pc}
 8001b78:	e000e100 	.word	0xe000e100
 8001b7c:	e000ed00 	.word	0xe000ed00

08001b80 <SysTick_Config>:
  \note    When the variable <b>__Vendor_SysTickConfig</b> is set to 1, then the
           function <b>SysTick_Config</b> is not included. In this case, the file <b><i>device</i>.h</b>
           must contain a vendor-specific implementation of this function.
 */
__STATIC_INLINE uint32_t SysTick_Config(uint32_t ticks)
{
 8001b80:	b580      	push	{r7, lr}
 8001b82:	b082      	sub	sp, #8
 8001b84:	af00      	add	r7, sp, #0
 8001b86:	6078      	str	r0, [r7, #4]
  if ((ticks - 1UL) > SysTick_LOAD_RELOAD_Msk)
 8001b88:	687b      	ldr	r3, [r7, #4]
 8001b8a:	3b01      	subs	r3, #1
 8001b8c:	4a0c      	ldr	r2, [pc, #48]	; (8001bc0 <SysTick_Config+0x40>)
 8001b8e:	4293      	cmp	r3, r2
 8001b90:	d901      	bls.n	8001b96 <SysTick_Config+0x16>
  {
    return (1UL);                                                   /* Reload value impossible */
 8001b92:	2301      	movs	r3, #1
 8001b94:	e010      	b.n	8001bb8 <SysTick_Config+0x38>
  }

  SysTick->LOAD  = (uint32_t)(ticks - 1UL);                         /* set reload register */
 8001b96:	4b0b      	ldr	r3, [pc, #44]	; (8001bc4 <SysTick_Config+0x44>)
 8001b98:	687a      	ldr	r2, [r7, #4]
 8001b9a:	3a01      	subs	r2, #1
 8001b9c:	605a      	str	r2, [r3, #4]
  NVIC_SetPriority (SysTick_IRQn, (1UL << __NVIC_PRIO_BITS) - 1UL); /* set Priority for Systick Interrupt */
 8001b9e:	2301      	movs	r3, #1
 8001ba0:	425b      	negs	r3, r3
 8001ba2:	2103      	movs	r1, #3
 8001ba4:	0018      	movs	r0, r3
 8001ba6:	f7ff ff7d 	bl	8001aa4 <__NVIC_SetPriority>
  SysTick->VAL   = 0UL;                                             /* Load the SysTick Counter Value */
 8001baa:	4b06      	ldr	r3, [pc, #24]	; (8001bc4 <SysTick_Config+0x44>)
 8001bac:	2200      	movs	r2, #0
 8001bae:	609a      	str	r2, [r3, #8]
  SysTick->CTRL  = SysTick_CTRL_CLKSOURCE_Msk |
 8001bb0:	4b04      	ldr	r3, [pc, #16]	; (8001bc4 <SysTick_Config+0x44>)
 8001bb2:	2207      	movs	r2, #7
 8001bb4:	601a      	str	r2, [r3, #0]
                   SysTick_CTRL_TICKINT_Msk   |
                   SysTick_CTRL_ENABLE_Msk;                         /* Enable SysTick IRQ and SysTick Timer */
  return (0UL);                                                     /* Function successful */
 8001bb6:	2300      	movs	r3, #0
}
 8001bb8:	0018      	movs	r0, r3
 8001bba:	46bd      	mov	sp, r7
 8001bbc:	b002      	add	sp, #8
 8001bbe:	bd80      	pop	{r7, pc}
 8001bc0:	00ffffff 	.word	0x00ffffff
 8001bc4:	e000e010 	.word	0xe000e010

08001bc8 <HAL_NVIC_SetPriority>:
  *         with stm32f0xx devices, this parameter is a dummy value and it is ignored, because 
  *         no subpriority supported in Cortex M0 based products.   
  * @retval None
  */
void HAL_NVIC_SetPriority(IRQn_Type IRQn, uint32_t PreemptPriority, uint32_t SubPriority)
{ 
 8001bc8:	b580      	push	{r7, lr}
 8001bca:	b084      	sub	sp, #16
 8001bcc:	af00      	add	r7, sp, #0
 8001bce:	60b9      	str	r1, [r7, #8]
 8001bd0:	607a      	str	r2, [r7, #4]
 8001bd2:	210f      	movs	r1, #15
 8001bd4:	187b      	adds	r3, r7, r1
 8001bd6:	1c02      	adds	r2, r0, #0
 8001bd8:	701a      	strb	r2, [r3, #0]
  /* Check the parameters */
  assert_param(IS_NVIC_PREEMPTION_PRIORITY(PreemptPriority));
  NVIC_SetPriority(IRQn,PreemptPriority);
 8001bda:	68ba      	ldr	r2, [r7, #8]
 8001bdc:	187b      	adds	r3, r7, r1
 8001bde:	781b      	ldrb	r3, [r3, #0]
 8001be0:	b25b      	sxtb	r3, r3
 8001be2:	0011      	movs	r1, r2
 8001be4:	0018      	movs	r0, r3
 8001be6:	f7ff ff5d 	bl	8001aa4 <__NVIC_SetPriority>
}
 8001bea:	46c0      	nop			; (mov r8, r8)
 8001bec:	46bd      	mov	sp, r7
 8001bee:	b004      	add	sp, #16
 8001bf0:	bd80      	pop	{r7, pc}

08001bf2 <HAL_NVIC_EnableIRQ>:
  *         This parameter can be an enumerator of IRQn_Type enumeration
  *         (For the complete STM32 Devices IRQ Channels list, please refer to the appropriate CMSIS device file (stm32f0xxxx.h))
  * @retval None
  */
void HAL_NVIC_EnableIRQ(IRQn_Type IRQn)
{
 8001bf2:	b580      	push	{r7, lr}
 8001bf4:	b082      	sub	sp, #8
 8001bf6:	af00      	add	r7, sp, #0
 8001bf8:	0002      	movs	r2, r0
 8001bfa:	1dfb      	adds	r3, r7, #7
 8001bfc:	701a      	strb	r2, [r3, #0]
  /* Check the parameters */
  assert_param(IS_NVIC_DEVICE_IRQ(IRQn));
  
  /* Enable interrupt */
  NVIC_EnableIRQ(IRQn);
 8001bfe:	1dfb      	adds	r3, r7, #7
 8001c00:	781b      	ldrb	r3, [r3, #0]
 8001c02:	b25b      	sxtb	r3, r3
 8001c04:	0018      	movs	r0, r3
 8001c06:	f7ff ff33 	bl	8001a70 <__NVIC_EnableIRQ>
}
 8001c0a:	46c0      	nop			; (mov r8, r8)
 8001c0c:	46bd      	mov	sp, r7
 8001c0e:	b002      	add	sp, #8
 8001c10:	bd80      	pop	{r7, pc}

08001c12 <HAL_SYSTICK_Config>:
  * @param  TicksNumb Specifies the ticks Number of ticks between two interrupts.
  * @retval status:  - 0  Function succeeded.
  *                  - 1  Function failed.
  */
uint32_t HAL_SYSTICK_Config(uint32_t TicksNumb)
{
 8001c12:	b580      	push	{r7, lr}
 8001c14:	b082      	sub	sp, #8
 8001c16:	af00      	add	r7, sp, #0
 8001c18:	6078      	str	r0, [r7, #4]
   return SysTick_Config(TicksNumb);
 8001c1a:	687b      	ldr	r3, [r7, #4]
 8001c1c:	0018      	movs	r0, r3
 8001c1e:	f7ff ffaf 	bl	8001b80 <SysTick_Config>
 8001c22:	0003      	movs	r3, r0
}
 8001c24:	0018      	movs	r0, r3
 8001c26:	46bd      	mov	sp, r7
 8001c28:	b002      	add	sp, #8
 8001c2a:	bd80      	pop	{r7, pc}

08001c2c <HAL_GPIO_Init>:
  * @param  GPIO_Init pointer to a GPIO_InitTypeDef structure that contains
  *         the configuration information for the specified GPIO peripheral.
  * @retval None
  */
void HAL_GPIO_Init(GPIO_TypeDef  *GPIOx, GPIO_InitTypeDef *GPIO_Init)
{ 
 8001c2c:	b580      	push	{r7, lr}
 8001c2e:	b086      	sub	sp, #24
 8001c30:	af00      	add	r7, sp, #0
 8001c32:	6078      	str	r0, [r7, #4]
 8001c34:	6039      	str	r1, [r7, #0]
  uint32_t position = 0x00u;
 8001c36:	2300      	movs	r3, #0
 8001c38:	617b      	str	r3, [r7, #20]
  assert_param(IS_GPIO_PIN(GPIO_Init->Pin));
  assert_param(IS_GPIO_MODE(GPIO_Init->Mode));
  assert_param(IS_GPIO_PULL(GPIO_Init->Pull));

  /* Configure the port pins */
  while (((GPIO_Init->Pin) >> position) != 0x00u)
 8001c3a:	e155      	b.n	8001ee8 <HAL_GPIO_Init+0x2bc>
  {
    /* Get current io position */
    iocurrent = (GPIO_Init->Pin) & (1uL << position);
 8001c3c:	683b      	ldr	r3, [r7, #0]
 8001c3e:	681b      	ldr	r3, [r3, #0]
 8001c40:	2101      	movs	r1, #1
 8001c42:	697a      	ldr	r2, [r7, #20]
 8001c44:	4091      	lsls	r1, r2
 8001c46:	000a      	movs	r2, r1
 8001c48:	4013      	ands	r3, r2
 8001c4a:	60fb      	str	r3, [r7, #12]

    if (iocurrent != 0x00u)
 8001c4c:	68fb      	ldr	r3, [r7, #12]
 8001c4e:	2b00      	cmp	r3, #0
 8001c50:	d100      	bne.n	8001c54 <HAL_GPIO_Init+0x28>
 8001c52:	e146      	b.n	8001ee2 <HAL_GPIO_Init+0x2b6>
    {
      /*--------------------- GPIO Mode Configuration ------------------------*/
      /* In case of Alternate function mode selection */
      if((GPIO_Init->Mode == GPIO_MODE_AF_PP) || (GPIO_Init->Mode == GPIO_MODE_AF_OD))
 8001c54:	683b      	ldr	r3, [r7, #0]
 8001c56:	685b      	ldr	r3, [r3, #4]
 8001c58:	2b02      	cmp	r3, #2
 8001c5a:	d003      	beq.n	8001c64 <HAL_GPIO_Init+0x38>
 8001c5c:	683b      	ldr	r3, [r7, #0]
 8001c5e:	685b      	ldr	r3, [r3, #4]
 8001c60:	2b12      	cmp	r3, #18
 8001c62:	d123      	bne.n	8001cac <HAL_GPIO_Init+0x80>
        /* Check the Alternate function parameters */
        assert_param(IS_GPIO_AF_INSTANCE(GPIOx));
        assert_param(IS_GPIO_AF(GPIO_Init->Alternate));

        /* Configure Alternate function mapped with the current IO */
        temp = GPIOx->AFR[position >> 3u];
 8001c64:	697b      	ldr	r3, [r7, #20]
 8001c66:	08da      	lsrs	r2, r3, #3
 8001c68:	687b      	ldr	r3, [r7, #4]
 8001c6a:	3208      	adds	r2, #8
 8001c6c:	0092      	lsls	r2, r2, #2
 8001c6e:	58d3      	ldr	r3, [r2, r3]
 8001c70:	613b      	str	r3, [r7, #16]
        temp &= ~(0xFu << ((position & 0x07u) * 4u));
 8001c72:	697b      	ldr	r3, [r7, #20]
 8001c74:	2207      	movs	r2, #7
 8001c76:	4013      	ands	r3, r2
 8001c78:	009b      	lsls	r3, r3, #2
 8001c7a:	220f      	movs	r2, #15
 8001c7c:	409a      	lsls	r2, r3
 8001c7e:	0013      	movs	r3, r2
 8001c80:	43da      	mvns	r2, r3
 8001c82:	693b      	ldr	r3, [r7, #16]
 8001c84:	4013      	ands	r3, r2
 8001c86:	613b      	str	r3, [r7, #16]
        temp |= ((GPIO_Init->Alternate) << ((position & 0x07u) * 4u));
 8001c88:	683b      	ldr	r3, [r7, #0]
 8001c8a:	691a      	ldr	r2, [r3, #16]
 8001c8c:	697b      	ldr	r3, [r7, #20]
 8001c8e:	2107      	movs	r1, #7
 8001c90:	400b      	ands	r3, r1
 8001c92:	009b      	lsls	r3, r3, #2
 8001c94:	409a      	lsls	r2, r3
 8001c96:	0013      	movs	r3, r2
 8001c98:	693a      	ldr	r2, [r7, #16]
 8001c9a:	4313      	orrs	r3, r2
 8001c9c:	613b      	str	r3, [r7, #16]
        GPIOx->AFR[position >> 3u] = temp;
 8001c9e:	697b      	ldr	r3, [r7, #20]
 8001ca0:	08da      	lsrs	r2, r3, #3
 8001ca2:	687b      	ldr	r3, [r7, #4]
 8001ca4:	3208      	adds	r2, #8
 8001ca6:	0092      	lsls	r2, r2, #2
 8001ca8:	6939      	ldr	r1, [r7, #16]
 8001caa:	50d1      	str	r1, [r2, r3]
      }

      /* Configure IO Direction mode (Input, Output, Alternate or Analog) */
      temp = GPIOx->MODER;
 8001cac:	687b      	ldr	r3, [r7, #4]
 8001cae:	681b      	ldr	r3, [r3, #0]
 8001cb0:	613b      	str	r3, [r7, #16]
      temp &= ~(GPIO_MODER_MODER0 << (position * 2u));
 8001cb2:	697b      	ldr	r3, [r7, #20]
 8001cb4:	005b      	lsls	r3, r3, #1
 8001cb6:	2203      	movs	r2, #3
 8001cb8:	409a      	lsls	r2, r3
 8001cba:	0013      	movs	r3, r2
 8001cbc:	43da      	mvns	r2, r3
 8001cbe:	693b      	ldr	r3, [r7, #16]
 8001cc0:	4013      	ands	r3, r2
 8001cc2:	613b      	str	r3, [r7, #16]
      temp |= ((GPIO_Init->Mode & GPIO_MODE) << (position * 2u));
 8001cc4:	683b      	ldr	r3, [r7, #0]
 8001cc6:	685b      	ldr	r3, [r3, #4]
 8001cc8:	2203      	movs	r2, #3
 8001cca:	401a      	ands	r2, r3
 8001ccc:	697b      	ldr	r3, [r7, #20]
 8001cce:	005b      	lsls	r3, r3, #1
 8001cd0:	409a      	lsls	r2, r3
 8001cd2:	0013      	movs	r3, r2
 8001cd4:	693a      	ldr	r2, [r7, #16]
 8001cd6:	4313      	orrs	r3, r2
 8001cd8:	613b      	str	r3, [r7, #16]
      GPIOx->MODER = temp;
 8001cda:	687b      	ldr	r3, [r7, #4]
 8001cdc:	693a      	ldr	r2, [r7, #16]
 8001cde:	601a      	str	r2, [r3, #0]

      /* In case of Output or Alternate function mode selection */
      if((GPIO_Init->Mode == GPIO_MODE_OUTPUT_PP) || (GPIO_Init->Mode == GPIO_MODE_AF_PP) ||
 8001ce0:	683b      	ldr	r3, [r7, #0]
 8001ce2:	685b      	ldr	r3, [r3, #4]
 8001ce4:	2b01      	cmp	r3, #1
 8001ce6:	d00b      	beq.n	8001d00 <HAL_GPIO_Init+0xd4>
 8001ce8:	683b      	ldr	r3, [r7, #0]
 8001cea:	685b      	ldr	r3, [r3, #4]
 8001cec:	2b02      	cmp	r3, #2
 8001cee:	d007      	beq.n	8001d00 <HAL_GPIO_Init+0xd4>
         (GPIO_Init->Mode == GPIO_MODE_OUTPUT_OD) || (GPIO_Init->Mode == GPIO_MODE_AF_OD))
 8001cf0:	683b      	ldr	r3, [r7, #0]
 8001cf2:	685b      	ldr	r3, [r3, #4]
      if((GPIO_Init->Mode == GPIO_MODE_OUTPUT_PP) || (GPIO_Init->Mode == GPIO_MODE_AF_PP) ||
 8001cf4:	2b11      	cmp	r3, #17
 8001cf6:	d003      	beq.n	8001d00 <HAL_GPIO_Init+0xd4>
         (GPIO_Init->Mode == GPIO_MODE_OUTPUT_OD) || (GPIO_Init->Mode == GPIO_MODE_AF_OD))
 8001cf8:	683b      	ldr	r3, [r7, #0]
 8001cfa:	685b      	ldr	r3, [r3, #4]
 8001cfc:	2b12      	cmp	r3, #18
 8001cfe:	d130      	bne.n	8001d62 <HAL_GPIO_Init+0x136>
      {
        /* Check the Speed parameter */
        assert_param(IS_GPIO_SPEED(GPIO_Init->Speed));
        /* Configure the IO Speed */
        temp = GPIOx->OSPEEDR;
 8001d00:	687b      	ldr	r3, [r7, #4]
 8001d02:	689b      	ldr	r3, [r3, #8]
 8001d04:	613b      	str	r3, [r7, #16]
        temp &= ~(GPIO_OSPEEDER_OSPEEDR0 << (position * 2u));
 8001d06:	697b      	ldr	r3, [r7, #20]
 8001d08:	005b      	lsls	r3, r3, #1
 8001d0a:	2203      	movs	r2, #3
 8001d0c:	409a      	lsls	r2, r3
 8001d0e:	0013      	movs	r3, r2
 8001d10:	43da      	mvns	r2, r3
 8001d12:	693b      	ldr	r3, [r7, #16]
 8001d14:	4013      	ands	r3, r2
 8001d16:	613b      	str	r3, [r7, #16]
        temp |= (GPIO_Init->Speed << (position * 2u));
 8001d18:	683b      	ldr	r3, [r7, #0]
 8001d1a:	68da      	ldr	r2, [r3, #12]
 8001d1c:	697b      	ldr	r3, [r7, #20]
 8001d1e:	005b      	lsls	r3, r3, #1
 8001d20:	409a      	lsls	r2, r3
 8001d22:	0013      	movs	r3, r2
 8001d24:	693a      	ldr	r2, [r7, #16]
 8001d26:	4313      	orrs	r3, r2
 8001d28:	613b      	str	r3, [r7, #16]
        GPIOx->OSPEEDR = temp;
 8001d2a:	687b      	ldr	r3, [r7, #4]
 8001d2c:	693a      	ldr	r2, [r7, #16]
 8001d2e:	609a      	str	r2, [r3, #8]

        /* Configure the IO Output Type */
        temp = GPIOx->OTYPER;
 8001d30:	687b      	ldr	r3, [r7, #4]
 8001d32:	685b      	ldr	r3, [r3, #4]
 8001d34:	613b      	str	r3, [r7, #16]
        temp &= ~(GPIO_OTYPER_OT_0 << position) ;
 8001d36:	2201      	movs	r2, #1
 8001d38:	697b      	ldr	r3, [r7, #20]
 8001d3a:	409a      	lsls	r2, r3
 8001d3c:	0013      	movs	r3, r2
 8001d3e:	43da      	mvns	r2, r3
 8001d40:	693b      	ldr	r3, [r7, #16]
 8001d42:	4013      	ands	r3, r2
 8001d44:	613b      	str	r3, [r7, #16]
        temp |= (((GPIO_Init->Mode & GPIO_OUTPUT_TYPE) >> 4u) << position);
 8001d46:	683b      	ldr	r3, [r7, #0]
 8001d48:	685b      	ldr	r3, [r3, #4]
 8001d4a:	091b      	lsrs	r3, r3, #4
 8001d4c:	2201      	movs	r2, #1
 8001d4e:	401a      	ands	r2, r3
 8001d50:	697b      	ldr	r3, [r7, #20]
 8001d52:	409a      	lsls	r2, r3
 8001d54:	0013      	movs	r3, r2
 8001d56:	693a      	ldr	r2, [r7, #16]
 8001d58:	4313      	orrs	r3, r2
 8001d5a:	613b      	str	r3, [r7, #16]
        GPIOx->OTYPER = temp;
 8001d5c:	687b      	ldr	r3, [r7, #4]
 8001d5e:	693a      	ldr	r2, [r7, #16]
 8001d60:	605a      	str	r2, [r3, #4]
      }

      /* Activate the Pull-up or Pull down resistor for the current IO */
      temp = GPIOx->PUPDR;
 8001d62:	687b      	ldr	r3, [r7, #4]
 8001d64:	68db      	ldr	r3, [r3, #12]
 8001d66:	613b      	str	r3, [r7, #16]
      temp &= ~(GPIO_PUPDR_PUPDR0 << (position * 2u));
 8001d68:	697b      	ldr	r3, [r7, #20]
 8001d6a:	005b      	lsls	r3, r3, #1
 8001d6c:	2203      	movs	r2, #3
 8001d6e:	409a      	lsls	r2, r3
 8001d70:	0013      	movs	r3, r2
 8001d72:	43da      	mvns	r2, r3
 8001d74:	693b      	ldr	r3, [r7, #16]
 8001d76:	4013      	ands	r3, r2
 8001d78:	613b      	str	r3, [r7, #16]
      temp |= ((GPIO_Init->Pull) << (position * 2u));
 8001d7a:	683b      	ldr	r3, [r7, #0]
 8001d7c:	689a      	ldr	r2, [r3, #8]
 8001d7e:	697b      	ldr	r3, [r7, #20]
 8001d80:	005b      	lsls	r3, r3, #1
 8001d82:	409a      	lsls	r2, r3
 8001d84:	0013      	movs	r3, r2
 8001d86:	693a      	ldr	r2, [r7, #16]
 8001d88:	4313      	orrs	r3, r2
 8001d8a:	613b      	str	r3, [r7, #16]
      GPIOx->PUPDR = temp;
 8001d8c:	687b      	ldr	r3, [r7, #4]
 8001d8e:	693a      	ldr	r2, [r7, #16]
 8001d90:	60da      	str	r2, [r3, #12]

      /*--------------------- EXTI Mode Configuration ------------------------*/
      /* Configure the External Interrupt or event for the current IO */
      if((GPIO_Init->Mode & EXTI_MODE) == EXTI_MODE)
 8001d92:	683b      	ldr	r3, [r7, #0]
 8001d94:	685a      	ldr	r2, [r3, #4]
 8001d96:	2380      	movs	r3, #128	; 0x80
 8001d98:	055b      	lsls	r3, r3, #21
 8001d9a:	4013      	ands	r3, r2
 8001d9c:	d100      	bne.n	8001da0 <HAL_GPIO_Init+0x174>
 8001d9e:	e0a0      	b.n	8001ee2 <HAL_GPIO_Init+0x2b6>
      {
        /* Enable SYSCFG Clock */
        __HAL_RCC_SYSCFG_CLK_ENABLE();
 8001da0:	4b57      	ldr	r3, [pc, #348]	; (8001f00 <HAL_GPIO_Init+0x2d4>)
 8001da2:	699a      	ldr	r2, [r3, #24]
 8001da4:	4b56      	ldr	r3, [pc, #344]	; (8001f00 <HAL_GPIO_Init+0x2d4>)
 8001da6:	2101      	movs	r1, #1
 8001da8:	430a      	orrs	r2, r1
 8001daa:	619a      	str	r2, [r3, #24]
 8001dac:	4b54      	ldr	r3, [pc, #336]	; (8001f00 <HAL_GPIO_Init+0x2d4>)
 8001dae:	699b      	ldr	r3, [r3, #24]
 8001db0:	2201      	movs	r2, #1
 8001db2:	4013      	ands	r3, r2
 8001db4:	60bb      	str	r3, [r7, #8]
 8001db6:	68bb      	ldr	r3, [r7, #8]

        temp = SYSCFG->EXTICR[position >> 2u];
 8001db8:	4a52      	ldr	r2, [pc, #328]	; (8001f04 <HAL_GPIO_Init+0x2d8>)
 8001dba:	697b      	ldr	r3, [r7, #20]
 8001dbc:	089b      	lsrs	r3, r3, #2
 8001dbe:	3302      	adds	r3, #2
 8001dc0:	009b      	lsls	r3, r3, #2
 8001dc2:	589b      	ldr	r3, [r3, r2]
 8001dc4:	613b      	str	r3, [r7, #16]
        temp &= ~(0x0FuL << (4u * (position & 0x03u)));
 8001dc6:	697b      	ldr	r3, [r7, #20]
 8001dc8:	2203      	movs	r2, #3
 8001dca:	4013      	ands	r3, r2
 8001dcc:	009b      	lsls	r3, r3, #2
 8001dce:	220f      	movs	r2, #15
 8001dd0:	409a      	lsls	r2, r3
 8001dd2:	0013      	movs	r3, r2
 8001dd4:	43da      	mvns	r2, r3
 8001dd6:	693b      	ldr	r3, [r7, #16]
 8001dd8:	4013      	ands	r3, r2
 8001dda:	613b      	str	r3, [r7, #16]
        temp |= (GPIO_GET_INDEX(GPIOx) << (4u * (position & 0x03u)));
 8001ddc:	687a      	ldr	r2, [r7, #4]
 8001dde:	2390      	movs	r3, #144	; 0x90
 8001de0:	05db      	lsls	r3, r3, #23
 8001de2:	429a      	cmp	r2, r3
 8001de4:	d019      	beq.n	8001e1a <HAL_GPIO_Init+0x1ee>
 8001de6:	687b      	ldr	r3, [r7, #4]
 8001de8:	4a47      	ldr	r2, [pc, #284]	; (8001f08 <HAL_GPIO_Init+0x2dc>)
 8001dea:	4293      	cmp	r3, r2
 8001dec:	d013      	beq.n	8001e16 <HAL_GPIO_Init+0x1ea>
 8001dee:	687b      	ldr	r3, [r7, #4]
 8001df0:	4a46      	ldr	r2, [pc, #280]	; (8001f0c <HAL_GPIO_Init+0x2e0>)
 8001df2:	4293      	cmp	r3, r2
 8001df4:	d00d      	beq.n	8001e12 <HAL_GPIO_Init+0x1e6>
 8001df6:	687b      	ldr	r3, [r7, #4]
 8001df8:	4a45      	ldr	r2, [pc, #276]	; (8001f10 <HAL_GPIO_Init+0x2e4>)
 8001dfa:	4293      	cmp	r3, r2
 8001dfc:	d007      	beq.n	8001e0e <HAL_GPIO_Init+0x1e2>
 8001dfe:	687b      	ldr	r3, [r7, #4]
 8001e00:	4a44      	ldr	r2, [pc, #272]	; (8001f14 <HAL_GPIO_Init+0x2e8>)
 8001e02:	4293      	cmp	r3, r2
 8001e04:	d101      	bne.n	8001e0a <HAL_GPIO_Init+0x1de>
 8001e06:	2304      	movs	r3, #4
 8001e08:	e008      	b.n	8001e1c <HAL_GPIO_Init+0x1f0>
 8001e0a:	2305      	movs	r3, #5
 8001e0c:	e006      	b.n	8001e1c <HAL_GPIO_Init+0x1f0>
 8001e0e:	2303      	movs	r3, #3
 8001e10:	e004      	b.n	8001e1c <HAL_GPIO_Init+0x1f0>
 8001e12:	2302      	movs	r3, #2
 8001e14:	e002      	b.n	8001e1c <HAL_GPIO_Init+0x1f0>
 8001e16:	2301      	movs	r3, #1
 8001e18:	e000      	b.n	8001e1c <HAL_GPIO_Init+0x1f0>
 8001e1a:	2300      	movs	r3, #0
 8001e1c:	697a      	ldr	r2, [r7, #20]
 8001e1e:	2103      	movs	r1, #3
 8001e20:	400a      	ands	r2, r1
 8001e22:	0092      	lsls	r2, r2, #2
 8001e24:	4093      	lsls	r3, r2
 8001e26:	693a      	ldr	r2, [r7, #16]
 8001e28:	4313      	orrs	r3, r2
 8001e2a:	613b      	str	r3, [r7, #16]
        SYSCFG->EXTICR[position >> 2u] = temp;
 8001e2c:	4935      	ldr	r1, [pc, #212]	; (8001f04 <HAL_GPIO_Init+0x2d8>)
 8001e2e:	697b      	ldr	r3, [r7, #20]
 8001e30:	089b      	lsrs	r3, r3, #2
 8001e32:	3302      	adds	r3, #2
 8001e34:	009b      	lsls	r3, r3, #2
 8001e36:	693a      	ldr	r2, [r7, #16]
 8001e38:	505a      	str	r2, [r3, r1]

        /* Clear EXTI line configuration */
        temp = EXTI->IMR;
 8001e3a:	4b37      	ldr	r3, [pc, #220]	; (8001f18 <HAL_GPIO_Init+0x2ec>)
 8001e3c:	681b      	ldr	r3, [r3, #0]
 8001e3e:	613b      	str	r3, [r7, #16]
        temp &= ~(iocurrent);
 8001e40:	68fb      	ldr	r3, [r7, #12]
 8001e42:	43da      	mvns	r2, r3
 8001e44:	693b      	ldr	r3, [r7, #16]
 8001e46:	4013      	ands	r3, r2
 8001e48:	613b      	str	r3, [r7, #16]
        if((GPIO_Init->Mode & GPIO_MODE_IT) == GPIO_MODE_IT)
 8001e4a:	683b      	ldr	r3, [r7, #0]
 8001e4c:	685a      	ldr	r2, [r3, #4]
 8001e4e:	2380      	movs	r3, #128	; 0x80
 8001e50:	025b      	lsls	r3, r3, #9
 8001e52:	4013      	ands	r3, r2
 8001e54:	d003      	beq.n	8001e5e <HAL_GPIO_Init+0x232>
        {
          temp |= iocurrent;
 8001e56:	693a      	ldr	r2, [r7, #16]
 8001e58:	68fb      	ldr	r3, [r7, #12]
 8001e5a:	4313      	orrs	r3, r2
 8001e5c:	613b      	str	r3, [r7, #16]
        }
        EXTI->IMR = temp;
 8001e5e:	4b2e      	ldr	r3, [pc, #184]	; (8001f18 <HAL_GPIO_Init+0x2ec>)
 8001e60:	693a      	ldr	r2, [r7, #16]
 8001e62:	601a      	str	r2, [r3, #0]

        temp = EXTI->EMR;
 8001e64:	4b2c      	ldr	r3, [pc, #176]	; (8001f18 <HAL_GPIO_Init+0x2ec>)
 8001e66:	685b      	ldr	r3, [r3, #4]
 8001e68:	613b      	str	r3, [r7, #16]
        temp &= ~(iocurrent);
 8001e6a:	68fb      	ldr	r3, [r7, #12]
 8001e6c:	43da      	mvns	r2, r3
 8001e6e:	693b      	ldr	r3, [r7, #16]
 8001e70:	4013      	ands	r3, r2
 8001e72:	613b      	str	r3, [r7, #16]
        if((GPIO_Init->Mode & GPIO_MODE_EVT) == GPIO_MODE_EVT)
 8001e74:	683b      	ldr	r3, [r7, #0]
 8001e76:	685a      	ldr	r2, [r3, #4]
 8001e78:	2380      	movs	r3, #128	; 0x80
 8001e7a:	029b      	lsls	r3, r3, #10
 8001e7c:	4013      	ands	r3, r2
 8001e7e:	d003      	beq.n	8001e88 <HAL_GPIO_Init+0x25c>
        {
          temp |= iocurrent;
 8001e80:	693a      	ldr	r2, [r7, #16]
 8001e82:	68fb      	ldr	r3, [r7, #12]
 8001e84:	4313      	orrs	r3, r2
 8001e86:	613b      	str	r3, [r7, #16]
        }
        EXTI->EMR = temp;
 8001e88:	4b23      	ldr	r3, [pc, #140]	; (8001f18 <HAL_GPIO_Init+0x2ec>)
 8001e8a:	693a      	ldr	r2, [r7, #16]
 8001e8c:	605a      	str	r2, [r3, #4]

        /* Clear Rising Falling edge configuration */
        temp = EXTI->RTSR;
 8001e8e:	4b22      	ldr	r3, [pc, #136]	; (8001f18 <HAL_GPIO_Init+0x2ec>)
 8001e90:	689b      	ldr	r3, [r3, #8]
 8001e92:	613b      	str	r3, [r7, #16]
        temp &= ~(iocurrent);
 8001e94:	68fb      	ldr	r3, [r7, #12]
 8001e96:	43da      	mvns	r2, r3
 8001e98:	693b      	ldr	r3, [r7, #16]
 8001e9a:	4013      	ands	r3, r2
 8001e9c:	613b      	str	r3, [r7, #16]
        if((GPIO_Init->Mode & RISING_EDGE) == RISING_EDGE)
 8001e9e:	683b      	ldr	r3, [r7, #0]
 8001ea0:	685a      	ldr	r2, [r3, #4]
 8001ea2:	2380      	movs	r3, #128	; 0x80
 8001ea4:	035b      	lsls	r3, r3, #13
 8001ea6:	4013      	ands	r3, r2
 8001ea8:	d003      	beq.n	8001eb2 <HAL_GPIO_Init+0x286>
        {
          temp |= iocurrent;
 8001eaa:	693a      	ldr	r2, [r7, #16]
 8001eac:	68fb      	ldr	r3, [r7, #12]
 8001eae:	4313      	orrs	r3, r2
 8001eb0:	613b      	str	r3, [r7, #16]
        }
        EXTI->RTSR = temp;
 8001eb2:	4b19      	ldr	r3, [pc, #100]	; (8001f18 <HAL_GPIO_Init+0x2ec>)
 8001eb4:	693a      	ldr	r2, [r7, #16]
 8001eb6:	609a      	str	r2, [r3, #8]

        temp = EXTI->FTSR;
 8001eb8:	4b17      	ldr	r3, [pc, #92]	; (8001f18 <HAL_GPIO_Init+0x2ec>)
 8001eba:	68db      	ldr	r3, [r3, #12]
 8001ebc:	613b      	str	r3, [r7, #16]
        temp &= ~(iocurrent);
 8001ebe:	68fb      	ldr	r3, [r7, #12]
 8001ec0:	43da      	mvns	r2, r3
 8001ec2:	693b      	ldr	r3, [r7, #16]
 8001ec4:	4013      	ands	r3, r2
 8001ec6:	613b      	str	r3, [r7, #16]
        if((GPIO_Init->Mode & FALLING_EDGE) == FALLING_EDGE)
 8001ec8:	683b      	ldr	r3, [r7, #0]
 8001eca:	685a      	ldr	r2, [r3, #4]
 8001ecc:	2380      	movs	r3, #128	; 0x80
 8001ece:	039b      	lsls	r3, r3, #14
 8001ed0:	4013      	ands	r3, r2
 8001ed2:	d003      	beq.n	8001edc <HAL_GPIO_Init+0x2b0>
        {
          temp |= iocurrent;
 8001ed4:	693a      	ldr	r2, [r7, #16]
 8001ed6:	68fb      	ldr	r3, [r7, #12]
 8001ed8:	4313      	orrs	r3, r2
 8001eda:	613b      	str	r3, [r7, #16]
        }
        EXTI->FTSR = temp;
 8001edc:	4b0e      	ldr	r3, [pc, #56]	; (8001f18 <HAL_GPIO_Init+0x2ec>)
 8001ede:	693a      	ldr	r2, [r7, #16]
 8001ee0:	60da      	str	r2, [r3, #12]
      }
    }

    position++;
 8001ee2:	697b      	ldr	r3, [r7, #20]
 8001ee4:	3301      	adds	r3, #1
 8001ee6:	617b      	str	r3, [r7, #20]
  while (((GPIO_Init->Pin) >> position) != 0x00u)
 8001ee8:	683b      	ldr	r3, [r7, #0]
 8001eea:	681a      	ldr	r2, [r3, #0]
 8001eec:	697b      	ldr	r3, [r7, #20]
 8001eee:	40da      	lsrs	r2, r3
 8001ef0:	1e13      	subs	r3, r2, #0
 8001ef2:	d000      	beq.n	8001ef6 <HAL_GPIO_Init+0x2ca>
 8001ef4:	e6a2      	b.n	8001c3c <HAL_GPIO_Init+0x10>
  } 
}
 8001ef6:	46c0      	nop			; (mov r8, r8)
 8001ef8:	46bd      	mov	sp, r7
 8001efa:	b006      	add	sp, #24
 8001efc:	bd80      	pop	{r7, pc}
 8001efe:	46c0      	nop			; (mov r8, r8)
 8001f00:	40021000 	.word	0x40021000
 8001f04:	40010000 	.word	0x40010000
 8001f08:	48000400 	.word	0x48000400
 8001f0c:	48000800 	.word	0x48000800
 8001f10:	48000c00 	.word	0x48000c00
 8001f14:	48001000 	.word	0x48001000
 8001f18:	40010400 	.word	0x40010400

08001f1c <HAL_GPIO_ReadPin>:
  * @param  GPIO_Pin specifies the port bit to read.
  *         This parameter can be GPIO_PIN_x where x can be (0..15).
  * @retval The input port pin value.
  */
GPIO_PinState HAL_GPIO_ReadPin(GPIO_TypeDef* GPIOx, uint16_t GPIO_Pin)
{
 8001f1c:	b580      	push	{r7, lr}
 8001f1e:	b084      	sub	sp, #16
 8001f20:	af00      	add	r7, sp, #0
 8001f22:	6078      	str	r0, [r7, #4]
 8001f24:	000a      	movs	r2, r1
 8001f26:	1cbb      	adds	r3, r7, #2
 8001f28:	801a      	strh	r2, [r3, #0]
  GPIO_PinState bitstatus;

  /* Check the parameters */
  assert_param(IS_GPIO_PIN(GPIO_Pin));

  if ((GPIOx->IDR & GPIO_Pin) != (uint32_t)GPIO_PIN_RESET)
 8001f2a:	687b      	ldr	r3, [r7, #4]
 8001f2c:	691b      	ldr	r3, [r3, #16]
 8001f2e:	1cba      	adds	r2, r7, #2
 8001f30:	8812      	ldrh	r2, [r2, #0]
 8001f32:	4013      	ands	r3, r2
 8001f34:	d004      	beq.n	8001f40 <HAL_GPIO_ReadPin+0x24>
  {
    bitstatus = GPIO_PIN_SET;
 8001f36:	230f      	movs	r3, #15
 8001f38:	18fb      	adds	r3, r7, r3
 8001f3a:	2201      	movs	r2, #1
 8001f3c:	701a      	strb	r2, [r3, #0]
 8001f3e:	e003      	b.n	8001f48 <HAL_GPIO_ReadPin+0x2c>
  }
  else
  {
    bitstatus = GPIO_PIN_RESET;
 8001f40:	230f      	movs	r3, #15
 8001f42:	18fb      	adds	r3, r7, r3
 8001f44:	2200      	movs	r2, #0
 8001f46:	701a      	strb	r2, [r3, #0]
  }
  return bitstatus;
 8001f48:	230f      	movs	r3, #15
 8001f4a:	18fb      	adds	r3, r7, r3
 8001f4c:	781b      	ldrb	r3, [r3, #0]
  }
 8001f4e:	0018      	movs	r0, r3
 8001f50:	46bd      	mov	sp, r7
 8001f52:	b004      	add	sp, #16
 8001f54:	bd80      	pop	{r7, pc}

08001f56 <HAL_GPIO_WritePin>:
  *            @arg GPIO_PIN_RESET: to clear the port pin
  *            @arg GPIO_PIN_SET: to set the port pin
  * @retval None
  */
void HAL_GPIO_WritePin(GPIO_TypeDef* GPIOx, uint16_t GPIO_Pin, GPIO_PinState PinState)
{
 8001f56:	b580      	push	{r7, lr}
 8001f58:	b082      	sub	sp, #8
 8001f5a:	af00      	add	r7, sp, #0
 8001f5c:	6078      	str	r0, [r7, #4]
 8001f5e:	0008      	movs	r0, r1
 8001f60:	0011      	movs	r1, r2
 8001f62:	1cbb      	adds	r3, r7, #2
 8001f64:	1c02      	adds	r2, r0, #0
 8001f66:	801a      	strh	r2, [r3, #0]
 8001f68:	1c7b      	adds	r3, r7, #1
 8001f6a:	1c0a      	adds	r2, r1, #0
 8001f6c:	701a      	strb	r2, [r3, #0]
  /* Check the parameters */
  assert_param(IS_GPIO_PIN(GPIO_Pin));
  assert_param(IS_GPIO_PIN_ACTION(PinState));

  if (PinState != GPIO_PIN_RESET)
 8001f6e:	1c7b      	adds	r3, r7, #1
 8001f70:	781b      	ldrb	r3, [r3, #0]
 8001f72:	2b00      	cmp	r3, #0
 8001f74:	d004      	beq.n	8001f80 <HAL_GPIO_WritePin+0x2a>
  {
    GPIOx->BSRR = (uint32_t)GPIO_Pin;
 8001f76:	1cbb      	adds	r3, r7, #2
 8001f78:	881a      	ldrh	r2, [r3, #0]
 8001f7a:	687b      	ldr	r3, [r7, #4]
 8001f7c:	619a      	str	r2, [r3, #24]
  }
  else
  {
    GPIOx->BRR = (uint32_t)GPIO_Pin;
  }
}
 8001f7e:	e003      	b.n	8001f88 <HAL_GPIO_WritePin+0x32>
    GPIOx->BRR = (uint32_t)GPIO_Pin;
 8001f80:	1cbb      	adds	r3, r7, #2
 8001f82:	881a      	ldrh	r2, [r3, #0]
 8001f84:	687b      	ldr	r3, [r7, #4]
 8001f86:	629a      	str	r2, [r3, #40]	; 0x28
}
 8001f88:	46c0      	nop			; (mov r8, r8)
 8001f8a:	46bd      	mov	sp, r7
 8001f8c:	b002      	add	sp, #8
 8001f8e:	bd80      	pop	{r7, pc}

08001f90 <HAL_GPIO_EXTI_IRQHandler>:
  * @brief  Handle EXTI interrupt request.
  * @param  GPIO_Pin Specifies the port pin connected to corresponding EXTI line.
  * @retval None
  */
void HAL_GPIO_EXTI_IRQHandler(uint16_t GPIO_Pin)
{
 8001f90:	b580      	push	{r7, lr}
 8001f92:	b082      	sub	sp, #8
 8001f94:	af00      	add	r7, sp, #0
 8001f96:	0002      	movs	r2, r0
 8001f98:	1dbb      	adds	r3, r7, #6
 8001f9a:	801a      	strh	r2, [r3, #0]
  /* EXTI line interrupt detected */
  if(__HAL_GPIO_EXTI_GET_IT(GPIO_Pin) != 0x00u)
 8001f9c:	4b09      	ldr	r3, [pc, #36]	; (8001fc4 <HAL_GPIO_EXTI_IRQHandler+0x34>)
 8001f9e:	695b      	ldr	r3, [r3, #20]
 8001fa0:	1dba      	adds	r2, r7, #6
 8001fa2:	8812      	ldrh	r2, [r2, #0]
 8001fa4:	4013      	ands	r3, r2
 8001fa6:	d008      	beq.n	8001fba <HAL_GPIO_EXTI_IRQHandler+0x2a>
  { 
    __HAL_GPIO_EXTI_CLEAR_IT(GPIO_Pin);
 8001fa8:	4b06      	ldr	r3, [pc, #24]	; (8001fc4 <HAL_GPIO_EXTI_IRQHandler+0x34>)
 8001faa:	1dba      	adds	r2, r7, #6
 8001fac:	8812      	ldrh	r2, [r2, #0]
 8001fae:	615a      	str	r2, [r3, #20]
    HAL_GPIO_EXTI_Callback(GPIO_Pin);
 8001fb0:	1dbb      	adds	r3, r7, #6
 8001fb2:	881b      	ldrh	r3, [r3, #0]
 8001fb4:	0018      	movs	r0, r3
 8001fb6:	f7fe fc0f 	bl	80007d8 <HAL_GPIO_EXTI_Callback>
  }
}
 8001fba:	46c0      	nop			; (mov r8, r8)
 8001fbc:	46bd      	mov	sp, r7
 8001fbe:	b002      	add	sp, #8
 8001fc0:	bd80      	pop	{r7, pc}
 8001fc2:	46c0      	nop			; (mov r8, r8)
 8001fc4:	40010400 	.word	0x40010400

08001fc8 <HAL_RCC_OscConfig>:
  *         supported by this macro. User should request a transition to HSE Off
  *         first and then HSE On or HSE Bypass.
  * @retval HAL status
  */
HAL_StatusTypeDef HAL_RCC_OscConfig(RCC_OscInitTypeDef  *RCC_OscInitStruct)
{
 8001fc8:	b580      	push	{r7, lr}
 8001fca:	b088      	sub	sp, #32
 8001fcc:	af00      	add	r7, sp, #0
 8001fce:	6078      	str	r0, [r7, #4]
  uint32_t tickstart;
  uint32_t pll_config;
  uint32_t pll_config2;

  /* Check Null pointer */
  if(RCC_OscInitStruct == NULL)
 8001fd0:	687b      	ldr	r3, [r7, #4]
 8001fd2:	2b00      	cmp	r3, #0
 8001fd4:	d102      	bne.n	8001fdc <HAL_RCC_OscConfig+0x14>
  {
    return HAL_ERROR;
 8001fd6:	2301      	movs	r3, #1
 8001fd8:	f000 fb76 	bl	80026c8 <HAL_RCC_OscConfig+0x700>

  /* Check the parameters */
  assert_param(IS_RCC_OSCILLATORTYPE(RCC_OscInitStruct->OscillatorType));

  /*------------------------------- HSE Configuration ------------------------*/ 
  if(((RCC_OscInitStruct->OscillatorType) & RCC_OSCILLATORTYPE_HSE) == RCC_OSCILLATORTYPE_HSE)
 8001fdc:	687b      	ldr	r3, [r7, #4]
 8001fde:	681b      	ldr	r3, [r3, #0]
 8001fe0:	2201      	movs	r2, #1
 8001fe2:	4013      	ands	r3, r2
 8001fe4:	d100      	bne.n	8001fe8 <HAL_RCC_OscConfig+0x20>
 8001fe6:	e08e      	b.n	8002106 <HAL_RCC_OscConfig+0x13e>
  {
    /* Check the parameters */
    assert_param(IS_RCC_HSE(RCC_OscInitStruct->HSEState));

    /* When the HSE is used as system clock or clock source for PLL in these cases it is not allowed to be disabled */
    if((__HAL_RCC_GET_SYSCLK_SOURCE() == RCC_SYSCLKSOURCE_STATUS_HSE) 
 8001fe8:	4bc5      	ldr	r3, [pc, #788]	; (8002300 <HAL_RCC_OscConfig+0x338>)
 8001fea:	685b      	ldr	r3, [r3, #4]
 8001fec:	220c      	movs	r2, #12
 8001fee:	4013      	ands	r3, r2
 8001ff0:	2b04      	cmp	r3, #4
 8001ff2:	d00e      	beq.n	8002012 <HAL_RCC_OscConfig+0x4a>
       || ((__HAL_RCC_GET_SYSCLK_SOURCE() == RCC_SYSCLKSOURCE_STATUS_PLLCLK) && (__HAL_RCC_GET_PLL_OSCSOURCE() == RCC_PLLSOURCE_HSE)))
 8001ff4:	4bc2      	ldr	r3, [pc, #776]	; (8002300 <HAL_RCC_OscConfig+0x338>)
 8001ff6:	685b      	ldr	r3, [r3, #4]
 8001ff8:	220c      	movs	r2, #12
 8001ffa:	4013      	ands	r3, r2
 8001ffc:	2b08      	cmp	r3, #8
 8001ffe:	d117      	bne.n	8002030 <HAL_RCC_OscConfig+0x68>
 8002000:	4bbf      	ldr	r3, [pc, #764]	; (8002300 <HAL_RCC_OscConfig+0x338>)
 8002002:	685a      	ldr	r2, [r3, #4]
 8002004:	23c0      	movs	r3, #192	; 0xc0
 8002006:	025b      	lsls	r3, r3, #9
 8002008:	401a      	ands	r2, r3
 800200a:	2380      	movs	r3, #128	; 0x80
 800200c:	025b      	lsls	r3, r3, #9
 800200e:	429a      	cmp	r2, r3
 8002010:	d10e      	bne.n	8002030 <HAL_RCC_OscConfig+0x68>
    {
      if((__HAL_RCC_GET_FLAG(RCC_FLAG_HSERDY) != RESET) && (RCC_OscInitStruct->HSEState == RCC_HSE_OFF))
 8002012:	4bbb      	ldr	r3, [pc, #748]	; (8002300 <HAL_RCC_OscConfig+0x338>)
 8002014:	681a      	ldr	r2, [r3, #0]
 8002016:	2380      	movs	r3, #128	; 0x80
 8002018:	029b      	lsls	r3, r3, #10
 800201a:	4013      	ands	r3, r2
 800201c:	d100      	bne.n	8002020 <HAL_RCC_OscConfig+0x58>
 800201e:	e071      	b.n	8002104 <HAL_RCC_OscConfig+0x13c>
 8002020:	687b      	ldr	r3, [r7, #4]
 8002022:	685b      	ldr	r3, [r3, #4]
 8002024:	2b00      	cmp	r3, #0
 8002026:	d000      	beq.n	800202a <HAL_RCC_OscConfig+0x62>
 8002028:	e06c      	b.n	8002104 <HAL_RCC_OscConfig+0x13c>
      {
        return HAL_ERROR;
 800202a:	2301      	movs	r3, #1
 800202c:	f000 fb4c 	bl	80026c8 <HAL_RCC_OscConfig+0x700>
      }
    }
    else
    {
      /* Set the new HSE configuration ---------------------------------------*/
      __HAL_RCC_HSE_CONFIG(RCC_OscInitStruct->HSEState);
 8002030:	687b      	ldr	r3, [r7, #4]
 8002032:	685b      	ldr	r3, [r3, #4]
 8002034:	2b01      	cmp	r3, #1
 8002036:	d107      	bne.n	8002048 <HAL_RCC_OscConfig+0x80>
 8002038:	4bb1      	ldr	r3, [pc, #708]	; (8002300 <HAL_RCC_OscConfig+0x338>)
 800203a:	681a      	ldr	r2, [r3, #0]
 800203c:	4bb0      	ldr	r3, [pc, #704]	; (8002300 <HAL_RCC_OscConfig+0x338>)
 800203e:	2180      	movs	r1, #128	; 0x80
 8002040:	0249      	lsls	r1, r1, #9
 8002042:	430a      	orrs	r2, r1
 8002044:	601a      	str	r2, [r3, #0]
 8002046:	e02f      	b.n	80020a8 <HAL_RCC_OscConfig+0xe0>
 8002048:	687b      	ldr	r3, [r7, #4]
 800204a:	685b      	ldr	r3, [r3, #4]
 800204c:	2b00      	cmp	r3, #0
 800204e:	d10c      	bne.n	800206a <HAL_RCC_OscConfig+0xa2>
 8002050:	4bab      	ldr	r3, [pc, #684]	; (8002300 <HAL_RCC_OscConfig+0x338>)
 8002052:	681a      	ldr	r2, [r3, #0]
 8002054:	4baa      	ldr	r3, [pc, #680]	; (8002300 <HAL_RCC_OscConfig+0x338>)
 8002056:	49ab      	ldr	r1, [pc, #684]	; (8002304 <HAL_RCC_OscConfig+0x33c>)
 8002058:	400a      	ands	r2, r1
 800205a:	601a      	str	r2, [r3, #0]
 800205c:	4ba8      	ldr	r3, [pc, #672]	; (8002300 <HAL_RCC_OscConfig+0x338>)
 800205e:	681a      	ldr	r2, [r3, #0]
 8002060:	4ba7      	ldr	r3, [pc, #668]	; (8002300 <HAL_RCC_OscConfig+0x338>)
 8002062:	49a9      	ldr	r1, [pc, #676]	; (8002308 <HAL_RCC_OscConfig+0x340>)
 8002064:	400a      	ands	r2, r1
 8002066:	601a      	str	r2, [r3, #0]
 8002068:	e01e      	b.n	80020a8 <HAL_RCC_OscConfig+0xe0>
 800206a:	687b      	ldr	r3, [r7, #4]
 800206c:	685b      	ldr	r3, [r3, #4]
 800206e:	2b05      	cmp	r3, #5
 8002070:	d10e      	bne.n	8002090 <HAL_RCC_OscConfig+0xc8>
 8002072:	4ba3      	ldr	r3, [pc, #652]	; (8002300 <HAL_RCC_OscConfig+0x338>)
 8002074:	681a      	ldr	r2, [r3, #0]
 8002076:	4ba2      	ldr	r3, [pc, #648]	; (8002300 <HAL_RCC_OscConfig+0x338>)
 8002078:	2180      	movs	r1, #128	; 0x80
 800207a:	02c9      	lsls	r1, r1, #11
 800207c:	430a      	orrs	r2, r1
 800207e:	601a      	str	r2, [r3, #0]
 8002080:	4b9f      	ldr	r3, [pc, #636]	; (8002300 <HAL_RCC_OscConfig+0x338>)
 8002082:	681a      	ldr	r2, [r3, #0]
 8002084:	4b9e      	ldr	r3, [pc, #632]	; (8002300 <HAL_RCC_OscConfig+0x338>)
 8002086:	2180      	movs	r1, #128	; 0x80
 8002088:	0249      	lsls	r1, r1, #9
 800208a:	430a      	orrs	r2, r1
 800208c:	601a      	str	r2, [r3, #0]
 800208e:	e00b      	b.n	80020a8 <HAL_RCC_OscConfig+0xe0>
 8002090:	4b9b      	ldr	r3, [pc, #620]	; (8002300 <HAL_RCC_OscConfig+0x338>)
 8002092:	681a      	ldr	r2, [r3, #0]
 8002094:	4b9a      	ldr	r3, [pc, #616]	; (8002300 <HAL_RCC_OscConfig+0x338>)
 8002096:	499b      	ldr	r1, [pc, #620]	; (8002304 <HAL_RCC_OscConfig+0x33c>)
 8002098:	400a      	ands	r2, r1
 800209a:	601a      	str	r2, [r3, #0]
 800209c:	4b98      	ldr	r3, [pc, #608]	; (8002300 <HAL_RCC_OscConfig+0x338>)
 800209e:	681a      	ldr	r2, [r3, #0]
 80020a0:	4b97      	ldr	r3, [pc, #604]	; (8002300 <HAL_RCC_OscConfig+0x338>)
 80020a2:	4999      	ldr	r1, [pc, #612]	; (8002308 <HAL_RCC_OscConfig+0x340>)
 80020a4:	400a      	ands	r2, r1
 80020a6:	601a      	str	r2, [r3, #0]
      

       /* Check the HSE State */
      if(RCC_OscInitStruct->HSEState != RCC_HSE_OFF)
 80020a8:	687b      	ldr	r3, [r7, #4]
 80020aa:	685b      	ldr	r3, [r3, #4]
 80020ac:	2b00      	cmp	r3, #0
 80020ae:	d014      	beq.n	80020da <HAL_RCC_OscConfig+0x112>
      {
        /* Get Start Tick */
        tickstart = HAL_GetTick();
 80020b0:	f7ff fa74 	bl	800159c <HAL_GetTick>
 80020b4:	0003      	movs	r3, r0
 80020b6:	61bb      	str	r3, [r7, #24]
        
        /* Wait till HSE is ready */
        while(__HAL_RCC_GET_FLAG(RCC_FLAG_HSERDY) == RESET)
 80020b8:	e008      	b.n	80020cc <HAL_RCC_OscConfig+0x104>
        {
          if((HAL_GetTick() - tickstart ) > HSE_TIMEOUT_VALUE)
 80020ba:	f7ff fa6f 	bl	800159c <HAL_GetTick>
 80020be:	0002      	movs	r2, r0
 80020c0:	69bb      	ldr	r3, [r7, #24]
 80020c2:	1ad3      	subs	r3, r2, r3
 80020c4:	2b64      	cmp	r3, #100	; 0x64
 80020c6:	d901      	bls.n	80020cc <HAL_RCC_OscConfig+0x104>
          {
            return HAL_TIMEOUT;
 80020c8:	2303      	movs	r3, #3
 80020ca:	e2fd      	b.n	80026c8 <HAL_RCC_OscConfig+0x700>
        while(__HAL_RCC_GET_FLAG(RCC_FLAG_HSERDY) == RESET)
 80020cc:	4b8c      	ldr	r3, [pc, #560]	; (8002300 <HAL_RCC_OscConfig+0x338>)
 80020ce:	681a      	ldr	r2, [r3, #0]
 80020d0:	2380      	movs	r3, #128	; 0x80
 80020d2:	029b      	lsls	r3, r3, #10
 80020d4:	4013      	ands	r3, r2
 80020d6:	d0f0      	beq.n	80020ba <HAL_RCC_OscConfig+0xf2>
 80020d8:	e015      	b.n	8002106 <HAL_RCC_OscConfig+0x13e>
        }
      }
      else
      {
        /* Get Start Tick */
        tickstart = HAL_GetTick();
 80020da:	f7ff fa5f 	bl	800159c <HAL_GetTick>
 80020de:	0003      	movs	r3, r0
 80020e0:	61bb      	str	r3, [r7, #24]
        
        /* Wait till HSE is disabled */
        while(__HAL_RCC_GET_FLAG(RCC_FLAG_HSERDY) != RESET)
 80020e2:	e008      	b.n	80020f6 <HAL_RCC_OscConfig+0x12e>
        {
           if((HAL_GetTick() - tickstart ) > HSE_TIMEOUT_VALUE)
 80020e4:	f7ff fa5a 	bl	800159c <HAL_GetTick>
 80020e8:	0002      	movs	r2, r0
 80020ea:	69bb      	ldr	r3, [r7, #24]
 80020ec:	1ad3      	subs	r3, r2, r3
 80020ee:	2b64      	cmp	r3, #100	; 0x64
 80020f0:	d901      	bls.n	80020f6 <HAL_RCC_OscConfig+0x12e>
          {
            return HAL_TIMEOUT;
 80020f2:	2303      	movs	r3, #3
 80020f4:	e2e8      	b.n	80026c8 <HAL_RCC_OscConfig+0x700>
        while(__HAL_RCC_GET_FLAG(RCC_FLAG_HSERDY) != RESET)
 80020f6:	4b82      	ldr	r3, [pc, #520]	; (8002300 <HAL_RCC_OscConfig+0x338>)
 80020f8:	681a      	ldr	r2, [r3, #0]
 80020fa:	2380      	movs	r3, #128	; 0x80
 80020fc:	029b      	lsls	r3, r3, #10
 80020fe:	4013      	ands	r3, r2
 8002100:	d1f0      	bne.n	80020e4 <HAL_RCC_OscConfig+0x11c>
 8002102:	e000      	b.n	8002106 <HAL_RCC_OscConfig+0x13e>
      if((__HAL_RCC_GET_FLAG(RCC_FLAG_HSERDY) != RESET) && (RCC_OscInitStruct->HSEState == RCC_HSE_OFF))
 8002104:	46c0      	nop			; (mov r8, r8)
        }
      }
    }
  }
  /*----------------------------- HSI Configuration --------------------------*/ 
  if(((RCC_OscInitStruct->OscillatorType) & RCC_OSCILLATORTYPE_HSI) == RCC_OSCILLATORTYPE_HSI)
 8002106:	687b      	ldr	r3, [r7, #4]
 8002108:	681b      	ldr	r3, [r3, #0]
 800210a:	2202      	movs	r2, #2
 800210c:	4013      	ands	r3, r2
 800210e:	d100      	bne.n	8002112 <HAL_RCC_OscConfig+0x14a>
 8002110:	e06c      	b.n	80021ec <HAL_RCC_OscConfig+0x224>
    /* Check the parameters */
    assert_param(IS_RCC_HSI(RCC_OscInitStruct->HSIState));
    assert_param(IS_RCC_CALIBRATION_VALUE(RCC_OscInitStruct->HSICalibrationValue));
    
    /* Check if HSI is used as system clock or as PLL source when PLL is selected as system clock */ 
    if((__HAL_RCC_GET_SYSCLK_SOURCE() == RCC_SYSCLKSOURCE_STATUS_HSI) 
 8002112:	4b7b      	ldr	r3, [pc, #492]	; (8002300 <HAL_RCC_OscConfig+0x338>)
 8002114:	685b      	ldr	r3, [r3, #4]
 8002116:	220c      	movs	r2, #12
 8002118:	4013      	ands	r3, r2
 800211a:	d00e      	beq.n	800213a <HAL_RCC_OscConfig+0x172>
       || ((__HAL_RCC_GET_SYSCLK_SOURCE() == RCC_SYSCLKSOURCE_STATUS_PLLCLK) && (__HAL_RCC_GET_PLL_OSCSOURCE() == RCC_PLLSOURCE_HSI)))
 800211c:	4b78      	ldr	r3, [pc, #480]	; (8002300 <HAL_RCC_OscConfig+0x338>)
 800211e:	685b      	ldr	r3, [r3, #4]
 8002120:	220c      	movs	r2, #12
 8002122:	4013      	ands	r3, r2
 8002124:	2b08      	cmp	r3, #8
 8002126:	d11f      	bne.n	8002168 <HAL_RCC_OscConfig+0x1a0>
 8002128:	4b75      	ldr	r3, [pc, #468]	; (8002300 <HAL_RCC_OscConfig+0x338>)
 800212a:	685a      	ldr	r2, [r3, #4]
 800212c:	23c0      	movs	r3, #192	; 0xc0
 800212e:	025b      	lsls	r3, r3, #9
 8002130:	401a      	ands	r2, r3
 8002132:	2380      	movs	r3, #128	; 0x80
 8002134:	021b      	lsls	r3, r3, #8
 8002136:	429a      	cmp	r2, r3
 8002138:	d116      	bne.n	8002168 <HAL_RCC_OscConfig+0x1a0>
    {
      /* When HSI is used as system clock it will not disabled */
      if((__HAL_RCC_GET_FLAG(RCC_FLAG_HSIRDY) != RESET) && (RCC_OscInitStruct->HSIState != RCC_HSI_ON))
 800213a:	4b71      	ldr	r3, [pc, #452]	; (8002300 <HAL_RCC_OscConfig+0x338>)
 800213c:	681b      	ldr	r3, [r3, #0]
 800213e:	2202      	movs	r2, #2
 8002140:	4013      	ands	r3, r2
 8002142:	d005      	beq.n	8002150 <HAL_RCC_OscConfig+0x188>
 8002144:	687b      	ldr	r3, [r7, #4]
 8002146:	68db      	ldr	r3, [r3, #12]
 8002148:	2b01      	cmp	r3, #1
 800214a:	d001      	beq.n	8002150 <HAL_RCC_OscConfig+0x188>
      {
        return HAL_ERROR;
 800214c:	2301      	movs	r3, #1
 800214e:	e2bb      	b.n	80026c8 <HAL_RCC_OscConfig+0x700>
      }
      /* Otherwise, just the calibration is allowed */
      else
      {
        /* Adjusts the Internal High Speed oscillator (HSI) calibration value.*/
        __HAL_RCC_HSI_CALIBRATIONVALUE_ADJUST(RCC_OscInitStruct->HSICalibrationValue);
 8002150:	4b6b      	ldr	r3, [pc, #428]	; (8002300 <HAL_RCC_OscConfig+0x338>)
 8002152:	681b      	ldr	r3, [r3, #0]
 8002154:	22f8      	movs	r2, #248	; 0xf8
 8002156:	4393      	bics	r3, r2
 8002158:	0019      	movs	r1, r3
 800215a:	687b      	ldr	r3, [r7, #4]
 800215c:	691b      	ldr	r3, [r3, #16]
 800215e:	00da      	lsls	r2, r3, #3
 8002160:	4b67      	ldr	r3, [pc, #412]	; (8002300 <HAL_RCC_OscConfig+0x338>)
 8002162:	430a      	orrs	r2, r1
 8002164:	601a      	str	r2, [r3, #0]
      if((__HAL_RCC_GET_FLAG(RCC_FLAG_HSIRDY) != RESET) && (RCC_OscInitStruct->HSIState != RCC_HSI_ON))
 8002166:	e041      	b.n	80021ec <HAL_RCC_OscConfig+0x224>
      }
    }
    else
    {
      /* Check the HSI State */
      if(RCC_OscInitStruct->HSIState != RCC_HSI_OFF)
 8002168:	687b      	ldr	r3, [r7, #4]
 800216a:	68db      	ldr	r3, [r3, #12]
 800216c:	2b00      	cmp	r3, #0
 800216e:	d024      	beq.n	80021ba <HAL_RCC_OscConfig+0x1f2>
      {
       /* Enable the Internal High Speed oscillator (HSI). */
        __HAL_RCC_HSI_ENABLE();
 8002170:	4b63      	ldr	r3, [pc, #396]	; (8002300 <HAL_RCC_OscConfig+0x338>)
 8002172:	681a      	ldr	r2, [r3, #0]
 8002174:	4b62      	ldr	r3, [pc, #392]	; (8002300 <HAL_RCC_OscConfig+0x338>)
 8002176:	2101      	movs	r1, #1
 8002178:	430a      	orrs	r2, r1
 800217a:	601a      	str	r2, [r3, #0]
        
        /* Get Start Tick */
        tickstart = HAL_GetTick();
 800217c:	f7ff fa0e 	bl	800159c <HAL_GetTick>
 8002180:	0003      	movs	r3, r0
 8002182:	61bb      	str	r3, [r7, #24]
        
        /* Wait till HSI is ready */
        while(__HAL_RCC_GET_FLAG(RCC_FLAG_HSIRDY) == RESET)
 8002184:	e008      	b.n	8002198 <HAL_RCC_OscConfig+0x1d0>
        {
          if((HAL_GetTick() - tickstart ) > HSI_TIMEOUT_VALUE)
 8002186:	f7ff fa09 	bl	800159c <HAL_GetTick>
 800218a:	0002      	movs	r2, r0
 800218c:	69bb      	ldr	r3, [r7, #24]
 800218e:	1ad3      	subs	r3, r2, r3
 8002190:	2b02      	cmp	r3, #2
 8002192:	d901      	bls.n	8002198 <HAL_RCC_OscConfig+0x1d0>
          {
            return HAL_TIMEOUT;
 8002194:	2303      	movs	r3, #3
 8002196:	e297      	b.n	80026c8 <HAL_RCC_OscConfig+0x700>
        while(__HAL_RCC_GET_FLAG(RCC_FLAG_HSIRDY) == RESET)
 8002198:	4b59      	ldr	r3, [pc, #356]	; (8002300 <HAL_RCC_OscConfig+0x338>)
 800219a:	681b      	ldr	r3, [r3, #0]
 800219c:	2202      	movs	r2, #2
 800219e:	4013      	ands	r3, r2
 80021a0:	d0f1      	beq.n	8002186 <HAL_RCC_OscConfig+0x1be>
          }
        }
                
        /* Adjusts the Internal High Speed oscillator (HSI) calibration value.*/
        __HAL_RCC_HSI_CALIBRATIONVALUE_ADJUST(RCC_OscInitStruct->HSICalibrationValue);
 80021a2:	4b57      	ldr	r3, [pc, #348]	; (8002300 <HAL_RCC_OscConfig+0x338>)
 80021a4:	681b      	ldr	r3, [r3, #0]
 80021a6:	22f8      	movs	r2, #248	; 0xf8
 80021a8:	4393      	bics	r3, r2
 80021aa:	0019      	movs	r1, r3
 80021ac:	687b      	ldr	r3, [r7, #4]
 80021ae:	691b      	ldr	r3, [r3, #16]
 80021b0:	00da      	lsls	r2, r3, #3
 80021b2:	4b53      	ldr	r3, [pc, #332]	; (8002300 <HAL_RCC_OscConfig+0x338>)
 80021b4:	430a      	orrs	r2, r1
 80021b6:	601a      	str	r2, [r3, #0]
 80021b8:	e018      	b.n	80021ec <HAL_RCC_OscConfig+0x224>
      }
      else
      {
        /* Disable the Internal High Speed oscillator (HSI). */
        __HAL_RCC_HSI_DISABLE();
 80021ba:	4b51      	ldr	r3, [pc, #324]	; (8002300 <HAL_RCC_OscConfig+0x338>)
 80021bc:	681a      	ldr	r2, [r3, #0]
 80021be:	4b50      	ldr	r3, [pc, #320]	; (8002300 <HAL_RCC_OscConfig+0x338>)
 80021c0:	2101      	movs	r1, #1
 80021c2:	438a      	bics	r2, r1
 80021c4:	601a      	str	r2, [r3, #0]
        
        /* Get Start Tick */
        tickstart = HAL_GetTick();
 80021c6:	f7ff f9e9 	bl	800159c <HAL_GetTick>
 80021ca:	0003      	movs	r3, r0
 80021cc:	61bb      	str	r3, [r7, #24]
        
        /* Wait till HSI is disabled */
        while(__HAL_RCC_GET_FLAG(RCC_FLAG_HSIRDY) != RESET)
 80021ce:	e008      	b.n	80021e2 <HAL_RCC_OscConfig+0x21a>
        {
          if((HAL_GetTick() - tickstart ) > HSI_TIMEOUT_VALUE)
 80021d0:	f7ff f9e4 	bl	800159c <HAL_GetTick>
 80021d4:	0002      	movs	r2, r0
 80021d6:	69bb      	ldr	r3, [r7, #24]
 80021d8:	1ad3      	subs	r3, r2, r3
 80021da:	2b02      	cmp	r3, #2
 80021dc:	d901      	bls.n	80021e2 <HAL_RCC_OscConfig+0x21a>
          {
            return HAL_TIMEOUT;
 80021de:	2303      	movs	r3, #3
 80021e0:	e272      	b.n	80026c8 <HAL_RCC_OscConfig+0x700>
        while(__HAL_RCC_GET_FLAG(RCC_FLAG_HSIRDY) != RESET)
 80021e2:	4b47      	ldr	r3, [pc, #284]	; (8002300 <HAL_RCC_OscConfig+0x338>)
 80021e4:	681b      	ldr	r3, [r3, #0]
 80021e6:	2202      	movs	r2, #2
 80021e8:	4013      	ands	r3, r2
 80021ea:	d1f1      	bne.n	80021d0 <HAL_RCC_OscConfig+0x208>
        }
      }
    }
  }
  /*------------------------------ LSI Configuration -------------------------*/ 
  if(((RCC_OscInitStruct->OscillatorType) & RCC_OSCILLATORTYPE_LSI) == RCC_OSCILLATORTYPE_LSI)
 80021ec:	687b      	ldr	r3, [r7, #4]
 80021ee:	681b      	ldr	r3, [r3, #0]
 80021f0:	2208      	movs	r2, #8
 80021f2:	4013      	ands	r3, r2
 80021f4:	d036      	beq.n	8002264 <HAL_RCC_OscConfig+0x29c>
  {
    /* Check the parameters */
    assert_param(IS_RCC_LSI(RCC_OscInitStruct->LSIState));
    
    /* Check the LSI State */
    if(RCC_OscInitStruct->LSIState != RCC_LSI_OFF)
 80021f6:	687b      	ldr	r3, [r7, #4]
 80021f8:	69db      	ldr	r3, [r3, #28]
 80021fa:	2b00      	cmp	r3, #0
 80021fc:	d019      	beq.n	8002232 <HAL_RCC_OscConfig+0x26a>
    {
      /* Enable the Internal Low Speed oscillator (LSI). */
      __HAL_RCC_LSI_ENABLE();
 80021fe:	4b40      	ldr	r3, [pc, #256]	; (8002300 <HAL_RCC_OscConfig+0x338>)
 8002200:	6a5a      	ldr	r2, [r3, #36]	; 0x24
 8002202:	4b3f      	ldr	r3, [pc, #252]	; (8002300 <HAL_RCC_OscConfig+0x338>)
 8002204:	2101      	movs	r1, #1
 8002206:	430a      	orrs	r2, r1
 8002208:	625a      	str	r2, [r3, #36]	; 0x24
      
      /* Get Start Tick */
      tickstart = HAL_GetTick();
 800220a:	f7ff f9c7 	bl	800159c <HAL_GetTick>
 800220e:	0003      	movs	r3, r0
 8002210:	61bb      	str	r3, [r7, #24]
      
      /* Wait till LSI is ready */  
      while(__HAL_RCC_GET_FLAG(RCC_FLAG_LSIRDY) == RESET)
 8002212:	e008      	b.n	8002226 <HAL_RCC_OscConfig+0x25e>
      {
        if((HAL_GetTick() - tickstart ) > LSI_TIMEOUT_VALUE)
 8002214:	f7ff f9c2 	bl	800159c <HAL_GetTick>
 8002218:	0002      	movs	r2, r0
 800221a:	69bb      	ldr	r3, [r7, #24]
 800221c:	1ad3      	subs	r3, r2, r3
 800221e:	2b02      	cmp	r3, #2
 8002220:	d901      	bls.n	8002226 <HAL_RCC_OscConfig+0x25e>
        {
          return HAL_TIMEOUT;
 8002222:	2303      	movs	r3, #3
 8002224:	e250      	b.n	80026c8 <HAL_RCC_OscConfig+0x700>
      while(__HAL_RCC_GET_FLAG(RCC_FLAG_LSIRDY) == RESET)
 8002226:	4b36      	ldr	r3, [pc, #216]	; (8002300 <HAL_RCC_OscConfig+0x338>)
 8002228:	6a5b      	ldr	r3, [r3, #36]	; 0x24
 800222a:	2202      	movs	r2, #2
 800222c:	4013      	ands	r3, r2
 800222e:	d0f1      	beq.n	8002214 <HAL_RCC_OscConfig+0x24c>
 8002230:	e018      	b.n	8002264 <HAL_RCC_OscConfig+0x29c>
      }
    }
    else
    {
      /* Disable the Internal Low Speed oscillator (LSI). */
      __HAL_RCC_LSI_DISABLE();
 8002232:	4b33      	ldr	r3, [pc, #204]	; (8002300 <HAL_RCC_OscConfig+0x338>)
 8002234:	6a5a      	ldr	r2, [r3, #36]	; 0x24
 8002236:	4b32      	ldr	r3, [pc, #200]	; (8002300 <HAL_RCC_OscConfig+0x338>)
 8002238:	2101      	movs	r1, #1
 800223a:	438a      	bics	r2, r1
 800223c:	625a      	str	r2, [r3, #36]	; 0x24
      
      /* Get Start Tick */
      tickstart = HAL_GetTick();
 800223e:	f7ff f9ad 	bl	800159c <HAL_GetTick>
 8002242:	0003      	movs	r3, r0
 8002244:	61bb      	str	r3, [r7, #24]
      
      /* Wait till LSI is disabled */  
      while(__HAL_RCC_GET_FLAG(RCC_FLAG_LSIRDY) != RESET)
 8002246:	e008      	b.n	800225a <HAL_RCC_OscConfig+0x292>
      {
        if((HAL_GetTick() - tickstart ) > LSI_TIMEOUT_VALUE)
 8002248:	f7ff f9a8 	bl	800159c <HAL_GetTick>
 800224c:	0002      	movs	r2, r0
 800224e:	69bb      	ldr	r3, [r7, #24]
 8002250:	1ad3      	subs	r3, r2, r3
 8002252:	2b02      	cmp	r3, #2
 8002254:	d901      	bls.n	800225a <HAL_RCC_OscConfig+0x292>
        {
          return HAL_TIMEOUT;
 8002256:	2303      	movs	r3, #3
 8002258:	e236      	b.n	80026c8 <HAL_RCC_OscConfig+0x700>
      while(__HAL_RCC_GET_FLAG(RCC_FLAG_LSIRDY) != RESET)
 800225a:	4b29      	ldr	r3, [pc, #164]	; (8002300 <HAL_RCC_OscConfig+0x338>)
 800225c:	6a5b      	ldr	r3, [r3, #36]	; 0x24
 800225e:	2202      	movs	r2, #2
 8002260:	4013      	ands	r3, r2
 8002262:	d1f1      	bne.n	8002248 <HAL_RCC_OscConfig+0x280>
        }
      }
    }
  }
  /*------------------------------ LSE Configuration -------------------------*/ 
  if(((RCC_OscInitStruct->OscillatorType) & RCC_OSCILLATORTYPE_LSE) == RCC_OSCILLATORTYPE_LSE)
 8002264:	687b      	ldr	r3, [r7, #4]
 8002266:	681b      	ldr	r3, [r3, #0]
 8002268:	2204      	movs	r2, #4
 800226a:	4013      	ands	r3, r2
 800226c:	d100      	bne.n	8002270 <HAL_RCC_OscConfig+0x2a8>
 800226e:	e0b5      	b.n	80023dc <HAL_RCC_OscConfig+0x414>
  {
    FlagStatus       pwrclkchanged = RESET;
 8002270:	231f      	movs	r3, #31
 8002272:	18fb      	adds	r3, r7, r3
 8002274:	2200      	movs	r2, #0
 8002276:	701a      	strb	r2, [r3, #0]
    /* Check the parameters */
    assert_param(IS_RCC_LSE(RCC_OscInitStruct->LSEState));

    /* Update LSE configuration in Backup Domain control register    */
    /* Requires to enable write access to Backup Domain of necessary */
    if(__HAL_RCC_PWR_IS_CLK_DISABLED())
 8002278:	4b21      	ldr	r3, [pc, #132]	; (8002300 <HAL_RCC_OscConfig+0x338>)
 800227a:	69da      	ldr	r2, [r3, #28]
 800227c:	2380      	movs	r3, #128	; 0x80
 800227e:	055b      	lsls	r3, r3, #21
 8002280:	4013      	ands	r3, r2
 8002282:	d111      	bne.n	80022a8 <HAL_RCC_OscConfig+0x2e0>
    {
      __HAL_RCC_PWR_CLK_ENABLE();
 8002284:	4b1e      	ldr	r3, [pc, #120]	; (8002300 <HAL_RCC_OscConfig+0x338>)
 8002286:	69da      	ldr	r2, [r3, #28]
 8002288:	4b1d      	ldr	r3, [pc, #116]	; (8002300 <HAL_RCC_OscConfig+0x338>)
 800228a:	2180      	movs	r1, #128	; 0x80
 800228c:	0549      	lsls	r1, r1, #21
 800228e:	430a      	orrs	r2, r1
 8002290:	61da      	str	r2, [r3, #28]
 8002292:	4b1b      	ldr	r3, [pc, #108]	; (8002300 <HAL_RCC_OscConfig+0x338>)
 8002294:	69da      	ldr	r2, [r3, #28]
 8002296:	2380      	movs	r3, #128	; 0x80
 8002298:	055b      	lsls	r3, r3, #21
 800229a:	4013      	ands	r3, r2
 800229c:	60fb      	str	r3, [r7, #12]
 800229e:	68fb      	ldr	r3, [r7, #12]
      pwrclkchanged = SET;
 80022a0:	231f      	movs	r3, #31
 80022a2:	18fb      	adds	r3, r7, r3
 80022a4:	2201      	movs	r2, #1
 80022a6:	701a      	strb	r2, [r3, #0]
    }
    
    if(HAL_IS_BIT_CLR(PWR->CR, PWR_CR_DBP))
 80022a8:	4b18      	ldr	r3, [pc, #96]	; (800230c <HAL_RCC_OscConfig+0x344>)
 80022aa:	681a      	ldr	r2, [r3, #0]
 80022ac:	2380      	movs	r3, #128	; 0x80
 80022ae:	005b      	lsls	r3, r3, #1
 80022b0:	4013      	ands	r3, r2
 80022b2:	d11a      	bne.n	80022ea <HAL_RCC_OscConfig+0x322>
    {
      /* Enable write access to Backup domain */
      SET_BIT(PWR->CR, PWR_CR_DBP);
 80022b4:	4b15      	ldr	r3, [pc, #84]	; (800230c <HAL_RCC_OscConfig+0x344>)
 80022b6:	681a      	ldr	r2, [r3, #0]
 80022b8:	4b14      	ldr	r3, [pc, #80]	; (800230c <HAL_RCC_OscConfig+0x344>)
 80022ba:	2180      	movs	r1, #128	; 0x80
 80022bc:	0049      	lsls	r1, r1, #1
 80022be:	430a      	orrs	r2, r1
 80022c0:	601a      	str	r2, [r3, #0]
      
      /* Wait for Backup domain Write protection disable */
      tickstart = HAL_GetTick();
 80022c2:	f7ff f96b 	bl	800159c <HAL_GetTick>
 80022c6:	0003      	movs	r3, r0
 80022c8:	61bb      	str	r3, [r7, #24]

      while(HAL_IS_BIT_CLR(PWR->CR, PWR_CR_DBP))
 80022ca:	e008      	b.n	80022de <HAL_RCC_OscConfig+0x316>
      {
        if((HAL_GetTick() - tickstart) > RCC_DBP_TIMEOUT_VALUE)
 80022cc:	f7ff f966 	bl	800159c <HAL_GetTick>
 80022d0:	0002      	movs	r2, r0
 80022d2:	69bb      	ldr	r3, [r7, #24]
 80022d4:	1ad3      	subs	r3, r2, r3
 80022d6:	2b64      	cmp	r3, #100	; 0x64
 80022d8:	d901      	bls.n	80022de <HAL_RCC_OscConfig+0x316>
        {
          return HAL_TIMEOUT;
 80022da:	2303      	movs	r3, #3
 80022dc:	e1f4      	b.n	80026c8 <HAL_RCC_OscConfig+0x700>
      while(HAL_IS_BIT_CLR(PWR->CR, PWR_CR_DBP))
 80022de:	4b0b      	ldr	r3, [pc, #44]	; (800230c <HAL_RCC_OscConfig+0x344>)
 80022e0:	681a      	ldr	r2, [r3, #0]
 80022e2:	2380      	movs	r3, #128	; 0x80
 80022e4:	005b      	lsls	r3, r3, #1
 80022e6:	4013      	ands	r3, r2
 80022e8:	d0f0      	beq.n	80022cc <HAL_RCC_OscConfig+0x304>
        }
      }
    }

    /* Set the new LSE configuration -----------------------------------------*/
    __HAL_RCC_LSE_CONFIG(RCC_OscInitStruct->LSEState);
 80022ea:	687b      	ldr	r3, [r7, #4]
 80022ec:	689b      	ldr	r3, [r3, #8]
 80022ee:	2b01      	cmp	r3, #1
 80022f0:	d10e      	bne.n	8002310 <HAL_RCC_OscConfig+0x348>
 80022f2:	4b03      	ldr	r3, [pc, #12]	; (8002300 <HAL_RCC_OscConfig+0x338>)
 80022f4:	6a1a      	ldr	r2, [r3, #32]
 80022f6:	4b02      	ldr	r3, [pc, #8]	; (8002300 <HAL_RCC_OscConfig+0x338>)
 80022f8:	2101      	movs	r1, #1
 80022fa:	430a      	orrs	r2, r1
 80022fc:	621a      	str	r2, [r3, #32]
 80022fe:	e035      	b.n	800236c <HAL_RCC_OscConfig+0x3a4>
 8002300:	40021000 	.word	0x40021000
 8002304:	fffeffff 	.word	0xfffeffff
 8002308:	fffbffff 	.word	0xfffbffff
 800230c:	40007000 	.word	0x40007000
 8002310:	687b      	ldr	r3, [r7, #4]
 8002312:	689b      	ldr	r3, [r3, #8]
 8002314:	2b00      	cmp	r3, #0
 8002316:	d10c      	bne.n	8002332 <HAL_RCC_OscConfig+0x36a>
 8002318:	4bca      	ldr	r3, [pc, #808]	; (8002644 <HAL_RCC_OscConfig+0x67c>)
 800231a:	6a1a      	ldr	r2, [r3, #32]
 800231c:	4bc9      	ldr	r3, [pc, #804]	; (8002644 <HAL_RCC_OscConfig+0x67c>)
 800231e:	2101      	movs	r1, #1
 8002320:	438a      	bics	r2, r1
 8002322:	621a      	str	r2, [r3, #32]
 8002324:	4bc7      	ldr	r3, [pc, #796]	; (8002644 <HAL_RCC_OscConfig+0x67c>)
 8002326:	6a1a      	ldr	r2, [r3, #32]
 8002328:	4bc6      	ldr	r3, [pc, #792]	; (8002644 <HAL_RCC_OscConfig+0x67c>)
 800232a:	2104      	movs	r1, #4
 800232c:	438a      	bics	r2, r1
 800232e:	621a      	str	r2, [r3, #32]
 8002330:	e01c      	b.n	800236c <HAL_RCC_OscConfig+0x3a4>
 8002332:	687b      	ldr	r3, [r7, #4]
 8002334:	689b      	ldr	r3, [r3, #8]
 8002336:	2b05      	cmp	r3, #5
 8002338:	d10c      	bne.n	8002354 <HAL_RCC_OscConfig+0x38c>
 800233a:	4bc2      	ldr	r3, [pc, #776]	; (8002644 <HAL_RCC_OscConfig+0x67c>)
 800233c:	6a1a      	ldr	r2, [r3, #32]
 800233e:	4bc1      	ldr	r3, [pc, #772]	; (8002644 <HAL_RCC_OscConfig+0x67c>)
 8002340:	2104      	movs	r1, #4
 8002342:	430a      	orrs	r2, r1
 8002344:	621a      	str	r2, [r3, #32]
 8002346:	4bbf      	ldr	r3, [pc, #764]	; (8002644 <HAL_RCC_OscConfig+0x67c>)
 8002348:	6a1a      	ldr	r2, [r3, #32]
 800234a:	4bbe      	ldr	r3, [pc, #760]	; (8002644 <HAL_RCC_OscConfig+0x67c>)
 800234c:	2101      	movs	r1, #1
 800234e:	430a      	orrs	r2, r1
 8002350:	621a      	str	r2, [r3, #32]
 8002352:	e00b      	b.n	800236c <HAL_RCC_OscConfig+0x3a4>
 8002354:	4bbb      	ldr	r3, [pc, #748]	; (8002644 <HAL_RCC_OscConfig+0x67c>)
 8002356:	6a1a      	ldr	r2, [r3, #32]
 8002358:	4bba      	ldr	r3, [pc, #744]	; (8002644 <HAL_RCC_OscConfig+0x67c>)
 800235a:	2101      	movs	r1, #1
 800235c:	438a      	bics	r2, r1
 800235e:	621a      	str	r2, [r3, #32]
 8002360:	4bb8      	ldr	r3, [pc, #736]	; (8002644 <HAL_RCC_OscConfig+0x67c>)
 8002362:	6a1a      	ldr	r2, [r3, #32]
 8002364:	4bb7      	ldr	r3, [pc, #732]	; (8002644 <HAL_RCC_OscConfig+0x67c>)
 8002366:	2104      	movs	r1, #4
 8002368:	438a      	bics	r2, r1
 800236a:	621a      	str	r2, [r3, #32]
    /* Check the LSE State */
    if(RCC_OscInitStruct->LSEState != RCC_LSE_OFF)
 800236c:	687b      	ldr	r3, [r7, #4]
 800236e:	689b      	ldr	r3, [r3, #8]
 8002370:	2b00      	cmp	r3, #0
 8002372:	d014      	beq.n	800239e <HAL_RCC_OscConfig+0x3d6>
    {
      /* Get Start Tick */
      tickstart = HAL_GetTick();
 8002374:	f7ff f912 	bl	800159c <HAL_GetTick>
 8002378:	0003      	movs	r3, r0
 800237a:	61bb      	str	r3, [r7, #24]
      
      /* Wait till LSE is ready */  
      while(__HAL_RCC_GET_FLAG(RCC_FLAG_LSERDY) == RESET)
 800237c:	e009      	b.n	8002392 <HAL_RCC_OscConfig+0x3ca>
      {
        if((HAL_GetTick() - tickstart ) > RCC_LSE_TIMEOUT_VALUE)
 800237e:	f7ff f90d 	bl	800159c <HAL_GetTick>
 8002382:	0002      	movs	r2, r0
 8002384:	69bb      	ldr	r3, [r7, #24]
 8002386:	1ad3      	subs	r3, r2, r3
 8002388:	4aaf      	ldr	r2, [pc, #700]	; (8002648 <HAL_RCC_OscConfig+0x680>)
 800238a:	4293      	cmp	r3, r2
 800238c:	d901      	bls.n	8002392 <HAL_RCC_OscConfig+0x3ca>
        {
          return HAL_TIMEOUT;
 800238e:	2303      	movs	r3, #3
 8002390:	e19a      	b.n	80026c8 <HAL_RCC_OscConfig+0x700>
      while(__HAL_RCC_GET_FLAG(RCC_FLAG_LSERDY) == RESET)
 8002392:	4bac      	ldr	r3, [pc, #688]	; (8002644 <HAL_RCC_OscConfig+0x67c>)
 8002394:	6a1b      	ldr	r3, [r3, #32]
 8002396:	2202      	movs	r2, #2
 8002398:	4013      	ands	r3, r2
 800239a:	d0f0      	beq.n	800237e <HAL_RCC_OscConfig+0x3b6>
 800239c:	e013      	b.n	80023c6 <HAL_RCC_OscConfig+0x3fe>
      }
    }
    else
    {
      /* Get Start Tick */
      tickstart = HAL_GetTick();
 800239e:	f7ff f8fd 	bl	800159c <HAL_GetTick>
 80023a2:	0003      	movs	r3, r0
 80023a4:	61bb      	str	r3, [r7, #24]
      
      /* Wait till LSE is disabled */  
      while(__HAL_RCC_GET_FLAG(RCC_FLAG_LSERDY) != RESET)
 80023a6:	e009      	b.n	80023bc <HAL_RCC_OscConfig+0x3f4>
      {
        if((HAL_GetTick() - tickstart ) > RCC_LSE_TIMEOUT_VALUE)
 80023a8:	f7ff f8f8 	bl	800159c <HAL_GetTick>
 80023ac:	0002      	movs	r2, r0
 80023ae:	69bb      	ldr	r3, [r7, #24]
 80023b0:	1ad3      	subs	r3, r2, r3
 80023b2:	4aa5      	ldr	r2, [pc, #660]	; (8002648 <HAL_RCC_OscConfig+0x680>)
 80023b4:	4293      	cmp	r3, r2
 80023b6:	d901      	bls.n	80023bc <HAL_RCC_OscConfig+0x3f4>
        {
          return HAL_TIMEOUT;
 80023b8:	2303      	movs	r3, #3
 80023ba:	e185      	b.n	80026c8 <HAL_RCC_OscConfig+0x700>
      while(__HAL_RCC_GET_FLAG(RCC_FLAG_LSERDY) != RESET)
 80023bc:	4ba1      	ldr	r3, [pc, #644]	; (8002644 <HAL_RCC_OscConfig+0x67c>)
 80023be:	6a1b      	ldr	r3, [r3, #32]
 80023c0:	2202      	movs	r2, #2
 80023c2:	4013      	ands	r3, r2
 80023c4:	d1f0      	bne.n	80023a8 <HAL_RCC_OscConfig+0x3e0>
        }
      }
    }

    /* Require to disable power clock if necessary */
    if(pwrclkchanged == SET)
 80023c6:	231f      	movs	r3, #31
 80023c8:	18fb      	adds	r3, r7, r3
 80023ca:	781b      	ldrb	r3, [r3, #0]
 80023cc:	2b01      	cmp	r3, #1
 80023ce:	d105      	bne.n	80023dc <HAL_RCC_OscConfig+0x414>
    {
      __HAL_RCC_PWR_CLK_DISABLE();
 80023d0:	4b9c      	ldr	r3, [pc, #624]	; (8002644 <HAL_RCC_OscConfig+0x67c>)
 80023d2:	69da      	ldr	r2, [r3, #28]
 80023d4:	4b9b      	ldr	r3, [pc, #620]	; (8002644 <HAL_RCC_OscConfig+0x67c>)
 80023d6:	499d      	ldr	r1, [pc, #628]	; (800264c <HAL_RCC_OscConfig+0x684>)
 80023d8:	400a      	ands	r2, r1
 80023da:	61da      	str	r2, [r3, #28]
    }
  }

  /*----------------------------- HSI14 Configuration --------------------------*/
  if(((RCC_OscInitStruct->OscillatorType) & RCC_OSCILLATORTYPE_HSI14) == RCC_OSCILLATORTYPE_HSI14)
 80023dc:	687b      	ldr	r3, [r7, #4]
 80023de:	681b      	ldr	r3, [r3, #0]
 80023e0:	2210      	movs	r2, #16
 80023e2:	4013      	ands	r3, r2
 80023e4:	d063      	beq.n	80024ae <HAL_RCC_OscConfig+0x4e6>
    /* Check the parameters */
    assert_param(IS_RCC_HSI14(RCC_OscInitStruct->HSI14State));
    assert_param(IS_RCC_CALIBRATION_VALUE(RCC_OscInitStruct->HSI14CalibrationValue));

    /* Check the HSI14 State */
    if(RCC_OscInitStruct->HSI14State == RCC_HSI14_ON)
 80023e6:	687b      	ldr	r3, [r7, #4]
 80023e8:	695b      	ldr	r3, [r3, #20]
 80023ea:	2b01      	cmp	r3, #1
 80023ec:	d12a      	bne.n	8002444 <HAL_RCC_OscConfig+0x47c>
    {
      /* Disable ADC control of the Internal High Speed oscillator HSI14 */
      __HAL_RCC_HSI14ADC_DISABLE();
 80023ee:	4b95      	ldr	r3, [pc, #596]	; (8002644 <HAL_RCC_OscConfig+0x67c>)
 80023f0:	6b5a      	ldr	r2, [r3, #52]	; 0x34
 80023f2:	4b94      	ldr	r3, [pc, #592]	; (8002644 <HAL_RCC_OscConfig+0x67c>)
 80023f4:	2104      	movs	r1, #4
 80023f6:	430a      	orrs	r2, r1
 80023f8:	635a      	str	r2, [r3, #52]	; 0x34

      /* Enable the Internal High Speed oscillator (HSI). */
      __HAL_RCC_HSI14_ENABLE();
 80023fa:	4b92      	ldr	r3, [pc, #584]	; (8002644 <HAL_RCC_OscConfig+0x67c>)
 80023fc:	6b5a      	ldr	r2, [r3, #52]	; 0x34
 80023fe:	4b91      	ldr	r3, [pc, #580]	; (8002644 <HAL_RCC_OscConfig+0x67c>)
 8002400:	2101      	movs	r1, #1
 8002402:	430a      	orrs	r2, r1
 8002404:	635a      	str	r2, [r3, #52]	; 0x34

      /* Get Start Tick */
      tickstart = HAL_GetTick();
 8002406:	f7ff f8c9 	bl	800159c <HAL_GetTick>
 800240a:	0003      	movs	r3, r0
 800240c:	61bb      	str	r3, [r7, #24]
      
      /* Wait till HSI is ready */  
      while(__HAL_RCC_GET_FLAG(RCC_FLAG_HSI14RDY) == RESET)
 800240e:	e008      	b.n	8002422 <HAL_RCC_OscConfig+0x45a>
      {
        if((HAL_GetTick() - tickstart) > HSI14_TIMEOUT_VALUE)
 8002410:	f7ff f8c4 	bl	800159c <HAL_GetTick>
 8002414:	0002      	movs	r2, r0
 8002416:	69bb      	ldr	r3, [r7, #24]
 8002418:	1ad3      	subs	r3, r2, r3
 800241a:	2b02      	cmp	r3, #2
 800241c:	d901      	bls.n	8002422 <HAL_RCC_OscConfig+0x45a>
        {
          return HAL_TIMEOUT;
 800241e:	2303      	movs	r3, #3
 8002420:	e152      	b.n	80026c8 <HAL_RCC_OscConfig+0x700>
      while(__HAL_RCC_GET_FLAG(RCC_FLAG_HSI14RDY) == RESET)
 8002422:	4b88      	ldr	r3, [pc, #544]	; (8002644 <HAL_RCC_OscConfig+0x67c>)
 8002424:	6b5b      	ldr	r3, [r3, #52]	; 0x34
 8002426:	2202      	movs	r2, #2
 8002428:	4013      	ands	r3, r2
 800242a:	d0f1      	beq.n	8002410 <HAL_RCC_OscConfig+0x448>
        }      
      } 

      /* Adjusts the Internal High Speed oscillator 14Mhz (HSI14) calibration value. */
      __HAL_RCC_HSI14_CALIBRATIONVALUE_ADJUST(RCC_OscInitStruct->HSI14CalibrationValue);
 800242c:	4b85      	ldr	r3, [pc, #532]	; (8002644 <HAL_RCC_OscConfig+0x67c>)
 800242e:	6b5b      	ldr	r3, [r3, #52]	; 0x34
 8002430:	22f8      	movs	r2, #248	; 0xf8
 8002432:	4393      	bics	r3, r2
 8002434:	0019      	movs	r1, r3
 8002436:	687b      	ldr	r3, [r7, #4]
 8002438:	699b      	ldr	r3, [r3, #24]
 800243a:	00da      	lsls	r2, r3, #3
 800243c:	4b81      	ldr	r3, [pc, #516]	; (8002644 <HAL_RCC_OscConfig+0x67c>)
 800243e:	430a      	orrs	r2, r1
 8002440:	635a      	str	r2, [r3, #52]	; 0x34
 8002442:	e034      	b.n	80024ae <HAL_RCC_OscConfig+0x4e6>
    }
    else if(RCC_OscInitStruct->HSI14State == RCC_HSI14_ADC_CONTROL)
 8002444:	687b      	ldr	r3, [r7, #4]
 8002446:	695b      	ldr	r3, [r3, #20]
 8002448:	3305      	adds	r3, #5
 800244a:	d111      	bne.n	8002470 <HAL_RCC_OscConfig+0x4a8>
    {
      /* Enable ADC control of the Internal High Speed oscillator HSI14 */
      __HAL_RCC_HSI14ADC_ENABLE();
 800244c:	4b7d      	ldr	r3, [pc, #500]	; (8002644 <HAL_RCC_OscConfig+0x67c>)
 800244e:	6b5a      	ldr	r2, [r3, #52]	; 0x34
 8002450:	4b7c      	ldr	r3, [pc, #496]	; (8002644 <HAL_RCC_OscConfig+0x67c>)
 8002452:	2104      	movs	r1, #4
 8002454:	438a      	bics	r2, r1
 8002456:	635a      	str	r2, [r3, #52]	; 0x34

      /* Adjusts the Internal High Speed oscillator 14Mhz (HSI14) calibration value. */
      __HAL_RCC_HSI14_CALIBRATIONVALUE_ADJUST(RCC_OscInitStruct->HSI14CalibrationValue);
 8002458:	4b7a      	ldr	r3, [pc, #488]	; (8002644 <HAL_RCC_OscConfig+0x67c>)
 800245a:	6b5b      	ldr	r3, [r3, #52]	; 0x34
 800245c:	22f8      	movs	r2, #248	; 0xf8
 800245e:	4393      	bics	r3, r2
 8002460:	0019      	movs	r1, r3
 8002462:	687b      	ldr	r3, [r7, #4]
 8002464:	699b      	ldr	r3, [r3, #24]
 8002466:	00da      	lsls	r2, r3, #3
 8002468:	4b76      	ldr	r3, [pc, #472]	; (8002644 <HAL_RCC_OscConfig+0x67c>)
 800246a:	430a      	orrs	r2, r1
 800246c:	635a      	str	r2, [r3, #52]	; 0x34
 800246e:	e01e      	b.n	80024ae <HAL_RCC_OscConfig+0x4e6>
    }
    else
    {
      /* Disable ADC control of the Internal High Speed oscillator HSI14 */
      __HAL_RCC_HSI14ADC_DISABLE();
 8002470:	4b74      	ldr	r3, [pc, #464]	; (8002644 <HAL_RCC_OscConfig+0x67c>)
 8002472:	6b5a      	ldr	r2, [r3, #52]	; 0x34
 8002474:	4b73      	ldr	r3, [pc, #460]	; (8002644 <HAL_RCC_OscConfig+0x67c>)
 8002476:	2104      	movs	r1, #4
 8002478:	430a      	orrs	r2, r1
 800247a:	635a      	str	r2, [r3, #52]	; 0x34

      /* Disable the Internal High Speed oscillator (HSI). */
      __HAL_RCC_HSI14_DISABLE();
 800247c:	4b71      	ldr	r3, [pc, #452]	; (8002644 <HAL_RCC_OscConfig+0x67c>)
 800247e:	6b5a      	ldr	r2, [r3, #52]	; 0x34
 8002480:	4b70      	ldr	r3, [pc, #448]	; (8002644 <HAL_RCC_OscConfig+0x67c>)
 8002482:	2101      	movs	r1, #1
 8002484:	438a      	bics	r2, r1
 8002486:	635a      	str	r2, [r3, #52]	; 0x34

      /* Get Start Tick */
      tickstart = HAL_GetTick();
 8002488:	f7ff f888 	bl	800159c <HAL_GetTick>
 800248c:	0003      	movs	r3, r0
 800248e:	61bb      	str	r3, [r7, #24]
      
      /* Wait till HSI is ready */  
      while(__HAL_RCC_GET_FLAG(RCC_FLAG_HSI14RDY) != RESET)
 8002490:	e008      	b.n	80024a4 <HAL_RCC_OscConfig+0x4dc>
      {
        if((HAL_GetTick() - tickstart) > HSI14_TIMEOUT_VALUE)
 8002492:	f7ff f883 	bl	800159c <HAL_GetTick>
 8002496:	0002      	movs	r2, r0
 8002498:	69bb      	ldr	r3, [r7, #24]
 800249a:	1ad3      	subs	r3, r2, r3
 800249c:	2b02      	cmp	r3, #2
 800249e:	d901      	bls.n	80024a4 <HAL_RCC_OscConfig+0x4dc>
        {
          return HAL_TIMEOUT;
 80024a0:	2303      	movs	r3, #3
 80024a2:	e111      	b.n	80026c8 <HAL_RCC_OscConfig+0x700>
      while(__HAL_RCC_GET_FLAG(RCC_FLAG_HSI14RDY) != RESET)
 80024a4:	4b67      	ldr	r3, [pc, #412]	; (8002644 <HAL_RCC_OscConfig+0x67c>)
 80024a6:	6b5b      	ldr	r3, [r3, #52]	; 0x34
 80024a8:	2202      	movs	r2, #2
 80024aa:	4013      	ands	r3, r2
 80024ac:	d1f1      	bne.n	8002492 <HAL_RCC_OscConfig+0x4ca>
    }
  }

#if defined(RCC_HSI48_SUPPORT)
  /*----------------------------- HSI48 Configuration --------------------------*/
  if(((RCC_OscInitStruct->OscillatorType) & RCC_OSCILLATORTYPE_HSI48) == RCC_OSCILLATORTYPE_HSI48)
 80024ae:	687b      	ldr	r3, [r7, #4]
 80024b0:	681b      	ldr	r3, [r3, #0]
 80024b2:	2220      	movs	r2, #32
 80024b4:	4013      	ands	r3, r2
 80024b6:	d05c      	beq.n	8002572 <HAL_RCC_OscConfig+0x5aa>
  {
    /* Check the parameters */
    assert_param(IS_RCC_HSI48(RCC_OscInitStruct->HSI48State));

    /* When the HSI48 is used as system clock it is not allowed to be disabled */
    if((__HAL_RCC_GET_SYSCLK_SOURCE() == RCC_SYSCLKSOURCE_STATUS_HSI48) ||
 80024b8:	4b62      	ldr	r3, [pc, #392]	; (8002644 <HAL_RCC_OscConfig+0x67c>)
 80024ba:	685b      	ldr	r3, [r3, #4]
 80024bc:	220c      	movs	r2, #12
 80024be:	4013      	ands	r3, r2
 80024c0:	2b0c      	cmp	r3, #12
 80024c2:	d00e      	beq.n	80024e2 <HAL_RCC_OscConfig+0x51a>
       ((__HAL_RCC_GET_SYSCLK_SOURCE() == RCC_SYSCLKSOURCE_STATUS_PLLCLK) && (__HAL_RCC_GET_PLL_OSCSOURCE() == RCC_PLLSOURCE_HSI48)))
 80024c4:	4b5f      	ldr	r3, [pc, #380]	; (8002644 <HAL_RCC_OscConfig+0x67c>)
 80024c6:	685b      	ldr	r3, [r3, #4]
 80024c8:	220c      	movs	r2, #12
 80024ca:	4013      	ands	r3, r2
    if((__HAL_RCC_GET_SYSCLK_SOURCE() == RCC_SYSCLKSOURCE_STATUS_HSI48) ||
 80024cc:	2b08      	cmp	r3, #8
 80024ce:	d114      	bne.n	80024fa <HAL_RCC_OscConfig+0x532>
       ((__HAL_RCC_GET_SYSCLK_SOURCE() == RCC_SYSCLKSOURCE_STATUS_PLLCLK) && (__HAL_RCC_GET_PLL_OSCSOURCE() == RCC_PLLSOURCE_HSI48)))
 80024d0:	4b5c      	ldr	r3, [pc, #368]	; (8002644 <HAL_RCC_OscConfig+0x67c>)
 80024d2:	685a      	ldr	r2, [r3, #4]
 80024d4:	23c0      	movs	r3, #192	; 0xc0
 80024d6:	025b      	lsls	r3, r3, #9
 80024d8:	401a      	ands	r2, r3
 80024da:	23c0      	movs	r3, #192	; 0xc0
 80024dc:	025b      	lsls	r3, r3, #9
 80024de:	429a      	cmp	r2, r3
 80024e0:	d10b      	bne.n	80024fa <HAL_RCC_OscConfig+0x532>
    {
      if((__HAL_RCC_GET_FLAG(RCC_FLAG_HSI48RDY) != RESET) && (RCC_OscInitStruct->HSI48State != RCC_HSI48_ON))
 80024e2:	4b58      	ldr	r3, [pc, #352]	; (8002644 <HAL_RCC_OscConfig+0x67c>)
 80024e4:	6b5a      	ldr	r2, [r3, #52]	; 0x34
 80024e6:	2380      	movs	r3, #128	; 0x80
 80024e8:	025b      	lsls	r3, r3, #9
 80024ea:	4013      	ands	r3, r2
 80024ec:	d040      	beq.n	8002570 <HAL_RCC_OscConfig+0x5a8>
 80024ee:	687b      	ldr	r3, [r7, #4]
 80024f0:	6a1b      	ldr	r3, [r3, #32]
 80024f2:	2b01      	cmp	r3, #1
 80024f4:	d03c      	beq.n	8002570 <HAL_RCC_OscConfig+0x5a8>
      {
        return HAL_ERROR;
 80024f6:	2301      	movs	r3, #1
 80024f8:	e0e6      	b.n	80026c8 <HAL_RCC_OscConfig+0x700>
      }
    }
    else
    {
      /* Check the HSI48 State */
      if(RCC_OscInitStruct->HSI48State != RCC_HSI48_OFF)
 80024fa:	687b      	ldr	r3, [r7, #4]
 80024fc:	6a1b      	ldr	r3, [r3, #32]
 80024fe:	2b00      	cmp	r3, #0
 8002500:	d01b      	beq.n	800253a <HAL_RCC_OscConfig+0x572>
      {
        /* Enable the Internal High Speed oscillator (HSI48). */
        __HAL_RCC_HSI48_ENABLE();
 8002502:	4b50      	ldr	r3, [pc, #320]	; (8002644 <HAL_RCC_OscConfig+0x67c>)
 8002504:	6b5a      	ldr	r2, [r3, #52]	; 0x34
 8002506:	4b4f      	ldr	r3, [pc, #316]	; (8002644 <HAL_RCC_OscConfig+0x67c>)
 8002508:	2180      	movs	r1, #128	; 0x80
 800250a:	0249      	lsls	r1, r1, #9
 800250c:	430a      	orrs	r2, r1
 800250e:	635a      	str	r2, [r3, #52]	; 0x34

        /* Get Start Tick */
        tickstart = HAL_GetTick();
 8002510:	f7ff f844 	bl	800159c <HAL_GetTick>
 8002514:	0003      	movs	r3, r0
 8002516:	61bb      	str	r3, [r7, #24]
      
        /* Wait till HSI48 is ready */  
        while(__HAL_RCC_GET_FLAG(RCC_FLAG_HSI48RDY) == RESET)
 8002518:	e008      	b.n	800252c <HAL_RCC_OscConfig+0x564>
        {
          if((HAL_GetTick() - tickstart) > HSI48_TIMEOUT_VALUE)
 800251a:	f7ff f83f 	bl	800159c <HAL_GetTick>
 800251e:	0002      	movs	r2, r0
 8002520:	69bb      	ldr	r3, [r7, #24]
 8002522:	1ad3      	subs	r3, r2, r3
 8002524:	2b02      	cmp	r3, #2
 8002526:	d901      	bls.n	800252c <HAL_RCC_OscConfig+0x564>
          {
            return HAL_TIMEOUT;
 8002528:	2303      	movs	r3, #3
 800252a:	e0cd      	b.n	80026c8 <HAL_RCC_OscConfig+0x700>
        while(__HAL_RCC_GET_FLAG(RCC_FLAG_HSI48RDY) == RESET)
 800252c:	4b45      	ldr	r3, [pc, #276]	; (8002644 <HAL_RCC_OscConfig+0x67c>)
 800252e:	6b5a      	ldr	r2, [r3, #52]	; 0x34
 8002530:	2380      	movs	r3, #128	; 0x80
 8002532:	025b      	lsls	r3, r3, #9
 8002534:	4013      	ands	r3, r2
 8002536:	d0f0      	beq.n	800251a <HAL_RCC_OscConfig+0x552>
 8002538:	e01b      	b.n	8002572 <HAL_RCC_OscConfig+0x5aa>
        } 
      }
      else
      {
        /* Disable the Internal High Speed oscillator (HSI48). */
        __HAL_RCC_HSI48_DISABLE();
 800253a:	4b42      	ldr	r3, [pc, #264]	; (8002644 <HAL_RCC_OscConfig+0x67c>)
 800253c:	6b5a      	ldr	r2, [r3, #52]	; 0x34
 800253e:	4b41      	ldr	r3, [pc, #260]	; (8002644 <HAL_RCC_OscConfig+0x67c>)
 8002540:	4943      	ldr	r1, [pc, #268]	; (8002650 <HAL_RCC_OscConfig+0x688>)
 8002542:	400a      	ands	r2, r1
 8002544:	635a      	str	r2, [r3, #52]	; 0x34

        /* Get Start Tick */
        tickstart = HAL_GetTick();
 8002546:	f7ff f829 	bl	800159c <HAL_GetTick>
 800254a:	0003      	movs	r3, r0
 800254c:	61bb      	str	r3, [r7, #24]
      
        /* Wait till HSI48 is ready */  
        while(__HAL_RCC_GET_FLAG(RCC_FLAG_HSI48RDY) != RESET)
 800254e:	e008      	b.n	8002562 <HAL_RCC_OscConfig+0x59a>
        {
          if((HAL_GetTick() - tickstart) > HSI48_TIMEOUT_VALUE)
 8002550:	f7ff f824 	bl	800159c <HAL_GetTick>
 8002554:	0002      	movs	r2, r0
 8002556:	69bb      	ldr	r3, [r7, #24]
 8002558:	1ad3      	subs	r3, r2, r3
 800255a:	2b02      	cmp	r3, #2
 800255c:	d901      	bls.n	8002562 <HAL_RCC_OscConfig+0x59a>
          {
            return HAL_TIMEOUT;
 800255e:	2303      	movs	r3, #3
 8002560:	e0b2      	b.n	80026c8 <HAL_RCC_OscConfig+0x700>
        while(__HAL_RCC_GET_FLAG(RCC_FLAG_HSI48RDY) != RESET)
 8002562:	4b38      	ldr	r3, [pc, #224]	; (8002644 <HAL_RCC_OscConfig+0x67c>)
 8002564:	6b5a      	ldr	r2, [r3, #52]	; 0x34
 8002566:	2380      	movs	r3, #128	; 0x80
 8002568:	025b      	lsls	r3, r3, #9
 800256a:	4013      	ands	r3, r2
 800256c:	d1f0      	bne.n	8002550 <HAL_RCC_OscConfig+0x588>
 800256e:	e000      	b.n	8002572 <HAL_RCC_OscConfig+0x5aa>
      if((__HAL_RCC_GET_FLAG(RCC_FLAG_HSI48RDY) != RESET) && (RCC_OscInitStruct->HSI48State != RCC_HSI48_ON))
 8002570:	46c0      	nop			; (mov r8, r8)
#endif /* RCC_HSI48_SUPPORT */
       
  /*-------------------------------- PLL Configuration -----------------------*/
  /* Check the parameters */
  assert_param(IS_RCC_PLL(RCC_OscInitStruct->PLL.PLLState));
  if ((RCC_OscInitStruct->PLL.PLLState) != RCC_PLL_NONE)
 8002572:	687b      	ldr	r3, [r7, #4]
 8002574:	6a5b      	ldr	r3, [r3, #36]	; 0x24
 8002576:	2b00      	cmp	r3, #0
 8002578:	d100      	bne.n	800257c <HAL_RCC_OscConfig+0x5b4>
 800257a:	e0a4      	b.n	80026c6 <HAL_RCC_OscConfig+0x6fe>
  {
    /* Check if the PLL is used as system clock or not */
    if(__HAL_RCC_GET_SYSCLK_SOURCE() != RCC_SYSCLKSOURCE_STATUS_PLLCLK)
 800257c:	4b31      	ldr	r3, [pc, #196]	; (8002644 <HAL_RCC_OscConfig+0x67c>)
 800257e:	685b      	ldr	r3, [r3, #4]
 8002580:	220c      	movs	r2, #12
 8002582:	4013      	ands	r3, r2
 8002584:	2b08      	cmp	r3, #8
 8002586:	d100      	bne.n	800258a <HAL_RCC_OscConfig+0x5c2>
 8002588:	e078      	b.n	800267c <HAL_RCC_OscConfig+0x6b4>
    { 
      if((RCC_OscInitStruct->PLL.PLLState) == RCC_PLL_ON)
 800258a:	687b      	ldr	r3, [r7, #4]
 800258c:	6a5b      	ldr	r3, [r3, #36]	; 0x24
 800258e:	2b02      	cmp	r3, #2
 8002590:	d14c      	bne.n	800262c <HAL_RCC_OscConfig+0x664>
        assert_param(IS_RCC_PLLSOURCE(RCC_OscInitStruct->PLL.PLLSource));
        assert_param(IS_RCC_PLL_MUL(RCC_OscInitStruct->PLL.PLLMUL));
        assert_param(IS_RCC_PREDIV(RCC_OscInitStruct->PLL.PREDIV));
  
        /* Disable the main PLL. */
        __HAL_RCC_PLL_DISABLE();
 8002592:	4b2c      	ldr	r3, [pc, #176]	; (8002644 <HAL_RCC_OscConfig+0x67c>)
 8002594:	681a      	ldr	r2, [r3, #0]
 8002596:	4b2b      	ldr	r3, [pc, #172]	; (8002644 <HAL_RCC_OscConfig+0x67c>)
 8002598:	492e      	ldr	r1, [pc, #184]	; (8002654 <HAL_RCC_OscConfig+0x68c>)
 800259a:	400a      	ands	r2, r1
 800259c:	601a      	str	r2, [r3, #0]
        
        /* Get Start Tick */
        tickstart = HAL_GetTick();
 800259e:	f7fe fffd 	bl	800159c <HAL_GetTick>
 80025a2:	0003      	movs	r3, r0
 80025a4:	61bb      	str	r3, [r7, #24]
        
        /* Wait till PLL is disabled */
        while(__HAL_RCC_GET_FLAG(RCC_FLAG_PLLRDY)  != RESET)
 80025a6:	e008      	b.n	80025ba <HAL_RCC_OscConfig+0x5f2>
        {
          if((HAL_GetTick() - tickstart ) > PLL_TIMEOUT_VALUE)
 80025a8:	f7fe fff8 	bl	800159c <HAL_GetTick>
 80025ac:	0002      	movs	r2, r0
 80025ae:	69bb      	ldr	r3, [r7, #24]
 80025b0:	1ad3      	subs	r3, r2, r3
 80025b2:	2b02      	cmp	r3, #2
 80025b4:	d901      	bls.n	80025ba <HAL_RCC_OscConfig+0x5f2>
          {
            return HAL_TIMEOUT;
 80025b6:	2303      	movs	r3, #3
 80025b8:	e086      	b.n	80026c8 <HAL_RCC_OscConfig+0x700>
        while(__HAL_RCC_GET_FLAG(RCC_FLAG_PLLRDY)  != RESET)
 80025ba:	4b22      	ldr	r3, [pc, #136]	; (8002644 <HAL_RCC_OscConfig+0x67c>)
 80025bc:	681a      	ldr	r2, [r3, #0]
 80025be:	2380      	movs	r3, #128	; 0x80
 80025c0:	049b      	lsls	r3, r3, #18
 80025c2:	4013      	ands	r3, r2
 80025c4:	d1f0      	bne.n	80025a8 <HAL_RCC_OscConfig+0x5e0>
          }
        }

        /* Configure the main PLL clock source, predivider and multiplication factor. */
        __HAL_RCC_PLL_CONFIG(RCC_OscInitStruct->PLL.PLLSource,
 80025c6:	4b1f      	ldr	r3, [pc, #124]	; (8002644 <HAL_RCC_OscConfig+0x67c>)
 80025c8:	6adb      	ldr	r3, [r3, #44]	; 0x2c
 80025ca:	220f      	movs	r2, #15
 80025cc:	4393      	bics	r3, r2
 80025ce:	0019      	movs	r1, r3
 80025d0:	687b      	ldr	r3, [r7, #4]
 80025d2:	6b1a      	ldr	r2, [r3, #48]	; 0x30
 80025d4:	4b1b      	ldr	r3, [pc, #108]	; (8002644 <HAL_RCC_OscConfig+0x67c>)
 80025d6:	430a      	orrs	r2, r1
 80025d8:	62da      	str	r2, [r3, #44]	; 0x2c
 80025da:	4b1a      	ldr	r3, [pc, #104]	; (8002644 <HAL_RCC_OscConfig+0x67c>)
 80025dc:	685b      	ldr	r3, [r3, #4]
 80025de:	4a1e      	ldr	r2, [pc, #120]	; (8002658 <HAL_RCC_OscConfig+0x690>)
 80025e0:	4013      	ands	r3, r2
 80025e2:	0019      	movs	r1, r3
 80025e4:	687b      	ldr	r3, [r7, #4]
 80025e6:	6ada      	ldr	r2, [r3, #44]	; 0x2c
 80025e8:	687b      	ldr	r3, [r7, #4]
 80025ea:	6a9b      	ldr	r3, [r3, #40]	; 0x28
 80025ec:	431a      	orrs	r2, r3
 80025ee:	4b15      	ldr	r3, [pc, #84]	; (8002644 <HAL_RCC_OscConfig+0x67c>)
 80025f0:	430a      	orrs	r2, r1
 80025f2:	605a      	str	r2, [r3, #4]
                             RCC_OscInitStruct->PLL.PREDIV,
                             RCC_OscInitStruct->PLL.PLLMUL);
        /* Enable the main PLL. */
        __HAL_RCC_PLL_ENABLE();
 80025f4:	4b13      	ldr	r3, [pc, #76]	; (8002644 <HAL_RCC_OscConfig+0x67c>)
 80025f6:	681a      	ldr	r2, [r3, #0]
 80025f8:	4b12      	ldr	r3, [pc, #72]	; (8002644 <HAL_RCC_OscConfig+0x67c>)
 80025fa:	2180      	movs	r1, #128	; 0x80
 80025fc:	0449      	lsls	r1, r1, #17
 80025fe:	430a      	orrs	r2, r1
 8002600:	601a      	str	r2, [r3, #0]
        
        /* Get Start Tick */
        tickstart = HAL_GetTick();
 8002602:	f7fe ffcb 	bl	800159c <HAL_GetTick>
 8002606:	0003      	movs	r3, r0
 8002608:	61bb      	str	r3, [r7, #24]
        
        /* Wait till PLL is ready */
        while(__HAL_RCC_GET_FLAG(RCC_FLAG_PLLRDY)  == RESET)
 800260a:	e008      	b.n	800261e <HAL_RCC_OscConfig+0x656>
        {
          if((HAL_GetTick() - tickstart ) > PLL_TIMEOUT_VALUE)
 800260c:	f7fe ffc6 	bl	800159c <HAL_GetTick>
 8002610:	0002      	movs	r2, r0
 8002612:	69bb      	ldr	r3, [r7, #24]
 8002614:	1ad3      	subs	r3, r2, r3
 8002616:	2b02      	cmp	r3, #2
 8002618:	d901      	bls.n	800261e <HAL_RCC_OscConfig+0x656>
          {
            return HAL_TIMEOUT;
 800261a:	2303      	movs	r3, #3
 800261c:	e054      	b.n	80026c8 <HAL_RCC_OscConfig+0x700>
        while(__HAL_RCC_GET_FLAG(RCC_FLAG_PLLRDY)  == RESET)
 800261e:	4b09      	ldr	r3, [pc, #36]	; (8002644 <HAL_RCC_OscConfig+0x67c>)
 8002620:	681a      	ldr	r2, [r3, #0]
 8002622:	2380      	movs	r3, #128	; 0x80
 8002624:	049b      	lsls	r3, r3, #18
 8002626:	4013      	ands	r3, r2
 8002628:	d0f0      	beq.n	800260c <HAL_RCC_OscConfig+0x644>
 800262a:	e04c      	b.n	80026c6 <HAL_RCC_OscConfig+0x6fe>
        }
      }
      else
      {
        /* Disable the main PLL. */
        __HAL_RCC_PLL_DISABLE();
 800262c:	4b05      	ldr	r3, [pc, #20]	; (8002644 <HAL_RCC_OscConfig+0x67c>)
 800262e:	681a      	ldr	r2, [r3, #0]
 8002630:	4b04      	ldr	r3, [pc, #16]	; (8002644 <HAL_RCC_OscConfig+0x67c>)
 8002632:	4908      	ldr	r1, [pc, #32]	; (8002654 <HAL_RCC_OscConfig+0x68c>)
 8002634:	400a      	ands	r2, r1
 8002636:	601a      	str	r2, [r3, #0]
 
        /* Get Start Tick */
        tickstart = HAL_GetTick();
 8002638:	f7fe ffb0 	bl	800159c <HAL_GetTick>
 800263c:	0003      	movs	r3, r0
 800263e:	61bb      	str	r3, [r7, #24]
        
        /* Wait till PLL is disabled */  
        while(__HAL_RCC_GET_FLAG(RCC_FLAG_PLLRDY)  != RESET)
 8002640:	e015      	b.n	800266e <HAL_RCC_OscConfig+0x6a6>
 8002642:	46c0      	nop			; (mov r8, r8)
 8002644:	40021000 	.word	0x40021000
 8002648:	00001388 	.word	0x00001388
 800264c:	efffffff 	.word	0xefffffff
 8002650:	fffeffff 	.word	0xfffeffff
 8002654:	feffffff 	.word	0xfeffffff
 8002658:	ffc27fff 	.word	0xffc27fff
        {
          if((HAL_GetTick() - tickstart ) > PLL_TIMEOUT_VALUE)
 800265c:	f7fe ff9e 	bl	800159c <HAL_GetTick>
 8002660:	0002      	movs	r2, r0
 8002662:	69bb      	ldr	r3, [r7, #24]
 8002664:	1ad3      	subs	r3, r2, r3
 8002666:	2b02      	cmp	r3, #2
 8002668:	d901      	bls.n	800266e <HAL_RCC_OscConfig+0x6a6>
          {
            return HAL_TIMEOUT;
 800266a:	2303      	movs	r3, #3
 800266c:	e02c      	b.n	80026c8 <HAL_RCC_OscConfig+0x700>
        while(__HAL_RCC_GET_FLAG(RCC_FLAG_PLLRDY)  != RESET)
 800266e:	4b18      	ldr	r3, [pc, #96]	; (80026d0 <HAL_RCC_OscConfig+0x708>)
 8002670:	681a      	ldr	r2, [r3, #0]
 8002672:	2380      	movs	r3, #128	; 0x80
 8002674:	049b      	lsls	r3, r3, #18
 8002676:	4013      	ands	r3, r2
 8002678:	d1f0      	bne.n	800265c <HAL_RCC_OscConfig+0x694>
 800267a:	e024      	b.n	80026c6 <HAL_RCC_OscConfig+0x6fe>
      }
    }
    else
    {
      /* Check if there is a request to disable the PLL used as System clock source */
      if((RCC_OscInitStruct->PLL.PLLState) == RCC_PLL_OFF)
 800267c:	687b      	ldr	r3, [r7, #4]
 800267e:	6a5b      	ldr	r3, [r3, #36]	; 0x24
 8002680:	2b01      	cmp	r3, #1
 8002682:	d101      	bne.n	8002688 <HAL_RCC_OscConfig+0x6c0>
      {
        return HAL_ERROR;
 8002684:	2301      	movs	r3, #1
 8002686:	e01f      	b.n	80026c8 <HAL_RCC_OscConfig+0x700>
      }
      else
      {
        /* Do not return HAL_ERROR if request repeats the current configuration */
        pll_config  = RCC->CFGR;
 8002688:	4b11      	ldr	r3, [pc, #68]	; (80026d0 <HAL_RCC_OscConfig+0x708>)
 800268a:	685b      	ldr	r3, [r3, #4]
 800268c:	617b      	str	r3, [r7, #20]
        pll_config2 = RCC->CFGR2;
 800268e:	4b10      	ldr	r3, [pc, #64]	; (80026d0 <HAL_RCC_OscConfig+0x708>)
 8002690:	6adb      	ldr	r3, [r3, #44]	; 0x2c
 8002692:	613b      	str	r3, [r7, #16]
        if((READ_BIT(pll_config,  RCC_CFGR_PLLSRC)  != RCC_OscInitStruct->PLL.PLLSource) ||
 8002694:	697a      	ldr	r2, [r7, #20]
 8002696:	23c0      	movs	r3, #192	; 0xc0
 8002698:	025b      	lsls	r3, r3, #9
 800269a:	401a      	ands	r2, r3
 800269c:	687b      	ldr	r3, [r7, #4]
 800269e:	6a9b      	ldr	r3, [r3, #40]	; 0x28
 80026a0:	429a      	cmp	r2, r3
 80026a2:	d10e      	bne.n	80026c2 <HAL_RCC_OscConfig+0x6fa>
           (READ_BIT(pll_config2, RCC_CFGR2_PREDIV) != RCC_OscInitStruct->PLL.PREDIV)    ||
 80026a4:	693b      	ldr	r3, [r7, #16]
 80026a6:	220f      	movs	r2, #15
 80026a8:	401a      	ands	r2, r3
 80026aa:	687b      	ldr	r3, [r7, #4]
 80026ac:	6b1b      	ldr	r3, [r3, #48]	; 0x30
        if((READ_BIT(pll_config,  RCC_CFGR_PLLSRC)  != RCC_OscInitStruct->PLL.PLLSource) ||
 80026ae:	429a      	cmp	r2, r3
 80026b0:	d107      	bne.n	80026c2 <HAL_RCC_OscConfig+0x6fa>
           (READ_BIT(pll_config,  RCC_CFGR_PLLMUL)  != RCC_OscInitStruct->PLL.PLLMUL))
 80026b2:	697a      	ldr	r2, [r7, #20]
 80026b4:	23f0      	movs	r3, #240	; 0xf0
 80026b6:	039b      	lsls	r3, r3, #14
 80026b8:	401a      	ands	r2, r3
 80026ba:	687b      	ldr	r3, [r7, #4]
 80026bc:	6adb      	ldr	r3, [r3, #44]	; 0x2c
           (READ_BIT(pll_config2, RCC_CFGR2_PREDIV) != RCC_OscInitStruct->PLL.PREDIV)    ||
 80026be:	429a      	cmp	r2, r3
 80026c0:	d001      	beq.n	80026c6 <HAL_RCC_OscConfig+0x6fe>
        {
          return HAL_ERROR;
 80026c2:	2301      	movs	r3, #1
 80026c4:	e000      	b.n	80026c8 <HAL_RCC_OscConfig+0x700>
        }
      }
    }
  }

  return HAL_OK;
 80026c6:	2300      	movs	r3, #0
}
 80026c8:	0018      	movs	r0, r3
 80026ca:	46bd      	mov	sp, r7
 80026cc:	b008      	add	sp, #32
 80026ce:	bd80      	pop	{r7, pc}
 80026d0:	40021000 	.word	0x40021000

080026d4 <HAL_RCC_ClockConfig>:
  *         You can use @ref HAL_RCC_GetClockConfig() function to know which clock is
  *         currently used as system clock source.
  * @retval HAL status
  */
HAL_StatusTypeDef HAL_RCC_ClockConfig(RCC_ClkInitTypeDef  *RCC_ClkInitStruct, uint32_t FLatency)
{
 80026d4:	b580      	push	{r7, lr}
 80026d6:	b084      	sub	sp, #16
 80026d8:	af00      	add	r7, sp, #0
 80026da:	6078      	str	r0, [r7, #4]
 80026dc:	6039      	str	r1, [r7, #0]
  uint32_t tickstart;

  /* Check Null pointer */
  if(RCC_ClkInitStruct == NULL)
 80026de:	687b      	ldr	r3, [r7, #4]
 80026e0:	2b00      	cmp	r3, #0
 80026e2:	d101      	bne.n	80026e8 <HAL_RCC_ClockConfig+0x14>
  {
    return HAL_ERROR;
 80026e4:	2301      	movs	r3, #1
 80026e6:	e0bf      	b.n	8002868 <HAL_RCC_ClockConfig+0x194>
  /* To correctly read data from FLASH memory, the number of wait states (LATENCY) 
  must be correctly programmed according to the frequency of the CPU clock 
    (HCLK) of the device. */

  /* Increasing the number of wait states because of higher CPU frequency */
  if(FLatency > __HAL_FLASH_GET_LATENCY())
 80026e8:	4b61      	ldr	r3, [pc, #388]	; (8002870 <HAL_RCC_ClockConfig+0x19c>)
 80026ea:	681b      	ldr	r3, [r3, #0]
 80026ec:	2201      	movs	r2, #1
 80026ee:	4013      	ands	r3, r2
 80026f0:	683a      	ldr	r2, [r7, #0]
 80026f2:	429a      	cmp	r2, r3
 80026f4:	d911      	bls.n	800271a <HAL_RCC_ClockConfig+0x46>
  {    
    /* Program the new number of wait states to the LATENCY bits in the FLASH_ACR register */
    __HAL_FLASH_SET_LATENCY(FLatency);
 80026f6:	4b5e      	ldr	r3, [pc, #376]	; (8002870 <HAL_RCC_ClockConfig+0x19c>)
 80026f8:	681b      	ldr	r3, [r3, #0]
 80026fa:	2201      	movs	r2, #1
 80026fc:	4393      	bics	r3, r2
 80026fe:	0019      	movs	r1, r3
 8002700:	4b5b      	ldr	r3, [pc, #364]	; (8002870 <HAL_RCC_ClockConfig+0x19c>)
 8002702:	683a      	ldr	r2, [r7, #0]
 8002704:	430a      	orrs	r2, r1
 8002706:	601a      	str	r2, [r3, #0]
    
    /* Check that the new number of wait states is taken into account to access the Flash
    memory by reading the FLASH_ACR register */
    if(__HAL_FLASH_GET_LATENCY() != FLatency)
 8002708:	4b59      	ldr	r3, [pc, #356]	; (8002870 <HAL_RCC_ClockConfig+0x19c>)
 800270a:	681b      	ldr	r3, [r3, #0]
 800270c:	2201      	movs	r2, #1
 800270e:	4013      	ands	r3, r2
 8002710:	683a      	ldr	r2, [r7, #0]
 8002712:	429a      	cmp	r2, r3
 8002714:	d001      	beq.n	800271a <HAL_RCC_ClockConfig+0x46>
    {
      return HAL_ERROR;
 8002716:	2301      	movs	r3, #1
 8002718:	e0a6      	b.n	8002868 <HAL_RCC_ClockConfig+0x194>
    }
  }

  /*-------------------------- HCLK Configuration --------------------------*/
  if(((RCC_ClkInitStruct->ClockType) & RCC_CLOCKTYPE_HCLK) == RCC_CLOCKTYPE_HCLK)
 800271a:	687b      	ldr	r3, [r7, #4]
 800271c:	681b      	ldr	r3, [r3, #0]
 800271e:	2202      	movs	r2, #2
 8002720:	4013      	ands	r3, r2
 8002722:	d015      	beq.n	8002750 <HAL_RCC_ClockConfig+0x7c>
  {
    /* Set the highest APB divider in order to ensure that we do not go through
       a non-spec phase whatever we decrease or increase HCLK. */
    if(((RCC_ClkInitStruct->ClockType) & RCC_CLOCKTYPE_PCLK1) == RCC_CLOCKTYPE_PCLK1)
 8002724:	687b      	ldr	r3, [r7, #4]
 8002726:	681b      	ldr	r3, [r3, #0]
 8002728:	2204      	movs	r2, #4
 800272a:	4013      	ands	r3, r2
 800272c:	d006      	beq.n	800273c <HAL_RCC_ClockConfig+0x68>
    {
      MODIFY_REG(RCC->CFGR, RCC_CFGR_PPRE, RCC_HCLK_DIV16);
 800272e:	4b51      	ldr	r3, [pc, #324]	; (8002874 <HAL_RCC_ClockConfig+0x1a0>)
 8002730:	685a      	ldr	r2, [r3, #4]
 8002732:	4b50      	ldr	r3, [pc, #320]	; (8002874 <HAL_RCC_ClockConfig+0x1a0>)
 8002734:	21e0      	movs	r1, #224	; 0xe0
 8002736:	00c9      	lsls	r1, r1, #3
 8002738:	430a      	orrs	r2, r1
 800273a:	605a      	str	r2, [r3, #4]
    }

    /* Set the new HCLK clock divider */
    assert_param(IS_RCC_HCLK(RCC_ClkInitStruct->AHBCLKDivider));
    MODIFY_REG(RCC->CFGR, RCC_CFGR_HPRE, RCC_ClkInitStruct->AHBCLKDivider);
 800273c:	4b4d      	ldr	r3, [pc, #308]	; (8002874 <HAL_RCC_ClockConfig+0x1a0>)
 800273e:	685b      	ldr	r3, [r3, #4]
 8002740:	22f0      	movs	r2, #240	; 0xf0
 8002742:	4393      	bics	r3, r2
 8002744:	0019      	movs	r1, r3
 8002746:	687b      	ldr	r3, [r7, #4]
 8002748:	689a      	ldr	r2, [r3, #8]
 800274a:	4b4a      	ldr	r3, [pc, #296]	; (8002874 <HAL_RCC_ClockConfig+0x1a0>)
 800274c:	430a      	orrs	r2, r1
 800274e:	605a      	str	r2, [r3, #4]
  }

  /*------------------------- SYSCLK Configuration ---------------------------*/ 
  if(((RCC_ClkInitStruct->ClockType) & RCC_CLOCKTYPE_SYSCLK) == RCC_CLOCKTYPE_SYSCLK)
 8002750:	687b      	ldr	r3, [r7, #4]
 8002752:	681b      	ldr	r3, [r3, #0]
 8002754:	2201      	movs	r2, #1
 8002756:	4013      	ands	r3, r2
 8002758:	d04c      	beq.n	80027f4 <HAL_RCC_ClockConfig+0x120>
  {
    assert_param(IS_RCC_SYSCLKSOURCE(RCC_ClkInitStruct->SYSCLKSource));
    
    /* HSE is selected as System Clock Source */
    if(RCC_ClkInitStruct->SYSCLKSource == RCC_SYSCLKSOURCE_HSE)
 800275a:	687b      	ldr	r3, [r7, #4]
 800275c:	685b      	ldr	r3, [r3, #4]
 800275e:	2b01      	cmp	r3, #1
 8002760:	d107      	bne.n	8002772 <HAL_RCC_ClockConfig+0x9e>
    {
      /* Check the HSE ready flag */  
      if(__HAL_RCC_GET_FLAG(RCC_FLAG_HSERDY) == RESET)
 8002762:	4b44      	ldr	r3, [pc, #272]	; (8002874 <HAL_RCC_ClockConfig+0x1a0>)
 8002764:	681a      	ldr	r2, [r3, #0]
 8002766:	2380      	movs	r3, #128	; 0x80
 8002768:	029b      	lsls	r3, r3, #10
 800276a:	4013      	ands	r3, r2
 800276c:	d120      	bne.n	80027b0 <HAL_RCC_ClockConfig+0xdc>
      {
        return HAL_ERROR;
 800276e:	2301      	movs	r3, #1
 8002770:	e07a      	b.n	8002868 <HAL_RCC_ClockConfig+0x194>
      }
    }
    /* PLL is selected as System Clock Source */
    else if(RCC_ClkInitStruct->SYSCLKSource == RCC_SYSCLKSOURCE_PLLCLK)
 8002772:	687b      	ldr	r3, [r7, #4]
 8002774:	685b      	ldr	r3, [r3, #4]
 8002776:	2b02      	cmp	r3, #2
 8002778:	d107      	bne.n	800278a <HAL_RCC_ClockConfig+0xb6>
    {
      /* Check the PLL ready flag */  
      if(__HAL_RCC_GET_FLAG(RCC_FLAG_PLLRDY) == RESET)
 800277a:	4b3e      	ldr	r3, [pc, #248]	; (8002874 <HAL_RCC_ClockConfig+0x1a0>)
 800277c:	681a      	ldr	r2, [r3, #0]
 800277e:	2380      	movs	r3, #128	; 0x80
 8002780:	049b      	lsls	r3, r3, #18
 8002782:	4013      	ands	r3, r2
 8002784:	d114      	bne.n	80027b0 <HAL_RCC_ClockConfig+0xdc>
      {
        return HAL_ERROR;
 8002786:	2301      	movs	r3, #1
 8002788:	e06e      	b.n	8002868 <HAL_RCC_ClockConfig+0x194>
      }
    }
#if defined(RCC_CFGR_SWS_HSI48)
    /* HSI48 is selected as System Clock Source */
    else if(RCC_ClkInitStruct->SYSCLKSource == RCC_SYSCLKSOURCE_HSI48)
 800278a:	687b      	ldr	r3, [r7, #4]
 800278c:	685b      	ldr	r3, [r3, #4]
 800278e:	2b03      	cmp	r3, #3
 8002790:	d107      	bne.n	80027a2 <HAL_RCC_ClockConfig+0xce>
    {
      /* Check the HSI48 ready flag */
      if(__HAL_RCC_GET_FLAG(RCC_FLAG_HSI48RDY) == RESET)
 8002792:	4b38      	ldr	r3, [pc, #224]	; (8002874 <HAL_RCC_ClockConfig+0x1a0>)
 8002794:	6b5a      	ldr	r2, [r3, #52]	; 0x34
 8002796:	2380      	movs	r3, #128	; 0x80
 8002798:	025b      	lsls	r3, r3, #9
 800279a:	4013      	ands	r3, r2
 800279c:	d108      	bne.n	80027b0 <HAL_RCC_ClockConfig+0xdc>
      {
        return HAL_ERROR;
 800279e:	2301      	movs	r3, #1
 80027a0:	e062      	b.n	8002868 <HAL_RCC_ClockConfig+0x194>
#endif /* RCC_CFGR_SWS_HSI48 */
    /* HSI is selected as System Clock Source */
    else
    {
      /* Check the HSI ready flag */  
      if(__HAL_RCC_GET_FLAG(RCC_FLAG_HSIRDY) == RESET)
 80027a2:	4b34      	ldr	r3, [pc, #208]	; (8002874 <HAL_RCC_ClockConfig+0x1a0>)
 80027a4:	681b      	ldr	r3, [r3, #0]
 80027a6:	2202      	movs	r2, #2
 80027a8:	4013      	ands	r3, r2
 80027aa:	d101      	bne.n	80027b0 <HAL_RCC_ClockConfig+0xdc>
      {
        return HAL_ERROR;
 80027ac:	2301      	movs	r3, #1
 80027ae:	e05b      	b.n	8002868 <HAL_RCC_ClockConfig+0x194>
      }
    }
    __HAL_RCC_SYSCLK_CONFIG(RCC_ClkInitStruct->SYSCLKSource);
 80027b0:	4b30      	ldr	r3, [pc, #192]	; (8002874 <HAL_RCC_ClockConfig+0x1a0>)
 80027b2:	685b      	ldr	r3, [r3, #4]
 80027b4:	2203      	movs	r2, #3
 80027b6:	4393      	bics	r3, r2
 80027b8:	0019      	movs	r1, r3
 80027ba:	687b      	ldr	r3, [r7, #4]
 80027bc:	685a      	ldr	r2, [r3, #4]
 80027be:	4b2d      	ldr	r3, [pc, #180]	; (8002874 <HAL_RCC_ClockConfig+0x1a0>)
 80027c0:	430a      	orrs	r2, r1
 80027c2:	605a      	str	r2, [r3, #4]

    /* Get Start Tick */
    tickstart = HAL_GetTick();
 80027c4:	f7fe feea 	bl	800159c <HAL_GetTick>
 80027c8:	0003      	movs	r3, r0
 80027ca:	60fb      	str	r3, [r7, #12]
    
    while (__HAL_RCC_GET_SYSCLK_SOURCE() != (RCC_ClkInitStruct->SYSCLKSource << RCC_CFGR_SWS_Pos))
 80027cc:	e009      	b.n	80027e2 <HAL_RCC_ClockConfig+0x10e>
    {
      if((HAL_GetTick() - tickstart ) > CLOCKSWITCH_TIMEOUT_VALUE)
 80027ce:	f7fe fee5 	bl	800159c <HAL_GetTick>
 80027d2:	0002      	movs	r2, r0
 80027d4:	68fb      	ldr	r3, [r7, #12]
 80027d6:	1ad3      	subs	r3, r2, r3
 80027d8:	4a27      	ldr	r2, [pc, #156]	; (8002878 <HAL_RCC_ClockConfig+0x1a4>)
 80027da:	4293      	cmp	r3, r2
 80027dc:	d901      	bls.n	80027e2 <HAL_RCC_ClockConfig+0x10e>
      {
        return HAL_TIMEOUT;
 80027de:	2303      	movs	r3, #3
 80027e0:	e042      	b.n	8002868 <HAL_RCC_ClockConfig+0x194>
    while (__HAL_RCC_GET_SYSCLK_SOURCE() != (RCC_ClkInitStruct->SYSCLKSource << RCC_CFGR_SWS_Pos))
 80027e2:	4b24      	ldr	r3, [pc, #144]	; (8002874 <HAL_RCC_ClockConfig+0x1a0>)
 80027e4:	685b      	ldr	r3, [r3, #4]
 80027e6:	220c      	movs	r2, #12
 80027e8:	401a      	ands	r2, r3
 80027ea:	687b      	ldr	r3, [r7, #4]
 80027ec:	685b      	ldr	r3, [r3, #4]
 80027ee:	009b      	lsls	r3, r3, #2
 80027f0:	429a      	cmp	r2, r3
 80027f2:	d1ec      	bne.n	80027ce <HAL_RCC_ClockConfig+0xfa>
      }
    }
  }

  /* Decreasing the number of wait states because of lower CPU frequency */
  if(FLatency < __HAL_FLASH_GET_LATENCY())
 80027f4:	4b1e      	ldr	r3, [pc, #120]	; (8002870 <HAL_RCC_ClockConfig+0x19c>)
 80027f6:	681b      	ldr	r3, [r3, #0]
 80027f8:	2201      	movs	r2, #1
 80027fa:	4013      	ands	r3, r2
 80027fc:	683a      	ldr	r2, [r7, #0]
 80027fe:	429a      	cmp	r2, r3
 8002800:	d211      	bcs.n	8002826 <HAL_RCC_ClockConfig+0x152>
  {    
    /* Program the new number of wait states to the LATENCY bits in the FLASH_ACR register */
    __HAL_FLASH_SET_LATENCY(FLatency);
 8002802:	4b1b      	ldr	r3, [pc, #108]	; (8002870 <HAL_RCC_ClockConfig+0x19c>)
 8002804:	681b      	ldr	r3, [r3, #0]
 8002806:	2201      	movs	r2, #1
 8002808:	4393      	bics	r3, r2
 800280a:	0019      	movs	r1, r3
 800280c:	4b18      	ldr	r3, [pc, #96]	; (8002870 <HAL_RCC_ClockConfig+0x19c>)
 800280e:	683a      	ldr	r2, [r7, #0]
 8002810:	430a      	orrs	r2, r1
 8002812:	601a      	str	r2, [r3, #0]
    
    /* Check that the new number of wait states is taken into account to access the Flash
    memory by reading the FLASH_ACR register */
    if(__HAL_FLASH_GET_LATENCY() != FLatency)
 8002814:	4b16      	ldr	r3, [pc, #88]	; (8002870 <HAL_RCC_ClockConfig+0x19c>)
 8002816:	681b      	ldr	r3, [r3, #0]
 8002818:	2201      	movs	r2, #1
 800281a:	4013      	ands	r3, r2
 800281c:	683a      	ldr	r2, [r7, #0]
 800281e:	429a      	cmp	r2, r3
 8002820:	d001      	beq.n	8002826 <HAL_RCC_ClockConfig+0x152>
    {
      return HAL_ERROR;
 8002822:	2301      	movs	r3, #1
 8002824:	e020      	b.n	8002868 <HAL_RCC_ClockConfig+0x194>
    }
  }    

  /*-------------------------- PCLK1 Configuration ---------------------------*/ 
  if(((RCC_ClkInitStruct->ClockType) & RCC_CLOCKTYPE_PCLK1) == RCC_CLOCKTYPE_PCLK1)
 8002826:	687b      	ldr	r3, [r7, #4]
 8002828:	681b      	ldr	r3, [r3, #0]
 800282a:	2204      	movs	r2, #4
 800282c:	4013      	ands	r3, r2
 800282e:	d009      	beq.n	8002844 <HAL_RCC_ClockConfig+0x170>
  {
    assert_param(IS_RCC_PCLK(RCC_ClkInitStruct->APB1CLKDivider));
    MODIFY_REG(RCC->CFGR, RCC_CFGR_PPRE, RCC_ClkInitStruct->APB1CLKDivider);
 8002830:	4b10      	ldr	r3, [pc, #64]	; (8002874 <HAL_RCC_ClockConfig+0x1a0>)
 8002832:	685b      	ldr	r3, [r3, #4]
 8002834:	4a11      	ldr	r2, [pc, #68]	; (800287c <HAL_RCC_ClockConfig+0x1a8>)
 8002836:	4013      	ands	r3, r2
 8002838:	0019      	movs	r1, r3
 800283a:	687b      	ldr	r3, [r7, #4]
 800283c:	68da      	ldr	r2, [r3, #12]
 800283e:	4b0d      	ldr	r3, [pc, #52]	; (8002874 <HAL_RCC_ClockConfig+0x1a0>)
 8002840:	430a      	orrs	r2, r1
 8002842:	605a      	str	r2, [r3, #4]
  }
  
  /* Update the SystemCoreClock global variable */
  SystemCoreClock = HAL_RCC_GetSysClockFreq() >> AHBPrescTable[(RCC->CFGR & RCC_CFGR_HPRE)>> RCC_CFGR_HPRE_BITNUMBER];
 8002844:	f000 f820 	bl	8002888 <HAL_RCC_GetSysClockFreq>
 8002848:	0001      	movs	r1, r0
 800284a:	4b0a      	ldr	r3, [pc, #40]	; (8002874 <HAL_RCC_ClockConfig+0x1a0>)
 800284c:	685b      	ldr	r3, [r3, #4]
 800284e:	091b      	lsrs	r3, r3, #4
 8002850:	220f      	movs	r2, #15
 8002852:	4013      	ands	r3, r2
 8002854:	4a0a      	ldr	r2, [pc, #40]	; (8002880 <HAL_RCC_ClockConfig+0x1ac>)
 8002856:	5cd3      	ldrb	r3, [r2, r3]
 8002858:	000a      	movs	r2, r1
 800285a:	40da      	lsrs	r2, r3
 800285c:	4b09      	ldr	r3, [pc, #36]	; (8002884 <HAL_RCC_ClockConfig+0x1b0>)
 800285e:	601a      	str	r2, [r3, #0]

  /* Configure the source of time base considering new system clocks settings*/
  HAL_InitTick (TICK_INT_PRIORITY);
 8002860:	2000      	movs	r0, #0
 8002862:	f7fe fe55 	bl	8001510 <HAL_InitTick>
  
  return HAL_OK;
 8002866:	2300      	movs	r3, #0
}
 8002868:	0018      	movs	r0, r3
 800286a:	46bd      	mov	sp, r7
 800286c:	b004      	add	sp, #16
 800286e:	bd80      	pop	{r7, pc}
 8002870:	40022000 	.word	0x40022000
 8002874:	40021000 	.word	0x40021000
 8002878:	00001388 	.word	0x00001388
 800287c:	fffff8ff 	.word	0xfffff8ff
 8002880:	08003974 	.word	0x08003974
 8002884:	20000000 	.word	0x20000000

08002888 <HAL_RCC_GetSysClockFreq>:
  *         right SYSCLK value. Otherwise, any configuration based on this function will be incorrect.
  *         
  * @retval SYSCLK frequency
  */
uint32_t HAL_RCC_GetSysClockFreq(void)
{
 8002888:	b590      	push	{r4, r7, lr}
 800288a:	b08f      	sub	sp, #60	; 0x3c
 800288c:	af00      	add	r7, sp, #0
  const uint8_t aPLLMULFactorTable[16] = { 2U,  3U,  4U,  5U,  6U,  7U,  8U,  9U,
 800288e:	2314      	movs	r3, #20
 8002890:	18fb      	adds	r3, r7, r3
 8002892:	4a37      	ldr	r2, [pc, #220]	; (8002970 <HAL_RCC_GetSysClockFreq+0xe8>)
 8002894:	ca13      	ldmia	r2!, {r0, r1, r4}
 8002896:	c313      	stmia	r3!, {r0, r1, r4}
 8002898:	6812      	ldr	r2, [r2, #0]
 800289a:	601a      	str	r2, [r3, #0]
                                         10U, 11U, 12U, 13U, 14U, 15U, 16U, 16U};
  const uint8_t aPredivFactorTable[16] = { 1U, 2U,  3U,  4U,  5U,  6U,  7U,  8U,
 800289c:	1d3b      	adds	r3, r7, #4
 800289e:	4a35      	ldr	r2, [pc, #212]	; (8002974 <HAL_RCC_GetSysClockFreq+0xec>)
 80028a0:	ca13      	ldmia	r2!, {r0, r1, r4}
 80028a2:	c313      	stmia	r3!, {r0, r1, r4}
 80028a4:	6812      	ldr	r2, [r2, #0]
 80028a6:	601a      	str	r2, [r3, #0]
                                           9U,10U, 11U, 12U, 13U, 14U, 15U, 16U};

  uint32_t tmpreg = 0U, prediv = 0U, pllclk = 0U, pllmul = 0U;
 80028a8:	2300      	movs	r3, #0
 80028aa:	62fb      	str	r3, [r7, #44]	; 0x2c
 80028ac:	2300      	movs	r3, #0
 80028ae:	62bb      	str	r3, [r7, #40]	; 0x28
 80028b0:	2300      	movs	r3, #0
 80028b2:	637b      	str	r3, [r7, #52]	; 0x34
 80028b4:	2300      	movs	r3, #0
 80028b6:	627b      	str	r3, [r7, #36]	; 0x24
  uint32_t sysclockfreq = 0U;
 80028b8:	2300      	movs	r3, #0
 80028ba:	633b      	str	r3, [r7, #48]	; 0x30
  
  tmpreg = RCC->CFGR;
 80028bc:	4b2e      	ldr	r3, [pc, #184]	; (8002978 <HAL_RCC_GetSysClockFreq+0xf0>)
 80028be:	685b      	ldr	r3, [r3, #4]
 80028c0:	62fb      	str	r3, [r7, #44]	; 0x2c
  
  /* Get SYSCLK source -------------------------------------------------------*/
  switch (tmpreg & RCC_CFGR_SWS)
 80028c2:	6afb      	ldr	r3, [r7, #44]	; 0x2c
 80028c4:	220c      	movs	r2, #12
 80028c6:	4013      	ands	r3, r2
 80028c8:	2b08      	cmp	r3, #8
 80028ca:	d006      	beq.n	80028da <HAL_RCC_GetSysClockFreq+0x52>
 80028cc:	2b0c      	cmp	r3, #12
 80028ce:	d043      	beq.n	8002958 <HAL_RCC_GetSysClockFreq+0xd0>
 80028d0:	2b04      	cmp	r3, #4
 80028d2:	d144      	bne.n	800295e <HAL_RCC_GetSysClockFreq+0xd6>
  {
    case RCC_SYSCLKSOURCE_STATUS_HSE:  /* HSE used as system clock */
    {
      sysclockfreq = HSE_VALUE;
 80028d4:	4b29      	ldr	r3, [pc, #164]	; (800297c <HAL_RCC_GetSysClockFreq+0xf4>)
 80028d6:	633b      	str	r3, [r7, #48]	; 0x30
      break;
 80028d8:	e044      	b.n	8002964 <HAL_RCC_GetSysClockFreq+0xdc>
    }
    case RCC_SYSCLKSOURCE_STATUS_PLLCLK:  /* PLL used as system clock */
    {
      pllmul = aPLLMULFactorTable[(uint32_t)(tmpreg & RCC_CFGR_PLLMUL) >> RCC_CFGR_PLLMUL_BITNUMBER];
 80028da:	6afb      	ldr	r3, [r7, #44]	; 0x2c
 80028dc:	0c9b      	lsrs	r3, r3, #18
 80028de:	220f      	movs	r2, #15
 80028e0:	4013      	ands	r3, r2
 80028e2:	2214      	movs	r2, #20
 80028e4:	18ba      	adds	r2, r7, r2
 80028e6:	5cd3      	ldrb	r3, [r2, r3]
 80028e8:	627b      	str	r3, [r7, #36]	; 0x24
      prediv = aPredivFactorTable[(uint32_t)(RCC->CFGR2 & RCC_CFGR2_PREDIV) >> RCC_CFGR2_PREDIV_BITNUMBER];
 80028ea:	4b23      	ldr	r3, [pc, #140]	; (8002978 <HAL_RCC_GetSysClockFreq+0xf0>)
 80028ec:	6adb      	ldr	r3, [r3, #44]	; 0x2c
 80028ee:	220f      	movs	r2, #15
 80028f0:	4013      	ands	r3, r2
 80028f2:	1d3a      	adds	r2, r7, #4
 80028f4:	5cd3      	ldrb	r3, [r2, r3]
 80028f6:	62bb      	str	r3, [r7, #40]	; 0x28
      if ((tmpreg & RCC_CFGR_PLLSRC) == RCC_PLLSOURCE_HSE)
 80028f8:	6afa      	ldr	r2, [r7, #44]	; 0x2c
 80028fa:	23c0      	movs	r3, #192	; 0xc0
 80028fc:	025b      	lsls	r3, r3, #9
 80028fe:	401a      	ands	r2, r3
 8002900:	2380      	movs	r3, #128	; 0x80
 8002902:	025b      	lsls	r3, r3, #9
 8002904:	429a      	cmp	r2, r3
 8002906:	d109      	bne.n	800291c <HAL_RCC_GetSysClockFreq+0x94>
      {
        /* HSE used as PLL clock source : PLLCLK = HSE/PREDIV * PLLMUL */
        pllclk = (uint32_t)((uint64_t) HSE_VALUE / (uint64_t) (prediv)) * ((uint64_t) pllmul);
 8002908:	6ab9      	ldr	r1, [r7, #40]	; 0x28
 800290a:	481c      	ldr	r0, [pc, #112]	; (800297c <HAL_RCC_GetSysClockFreq+0xf4>)
 800290c:	f7fd fbfc 	bl	8000108 <__udivsi3>
 8002910:	0003      	movs	r3, r0
 8002912:	001a      	movs	r2, r3
 8002914:	6a7b      	ldr	r3, [r7, #36]	; 0x24
 8002916:	4353      	muls	r3, r2
 8002918:	637b      	str	r3, [r7, #52]	; 0x34
 800291a:	e01a      	b.n	8002952 <HAL_RCC_GetSysClockFreq+0xca>
      }
#if defined(RCC_CFGR_PLLSRC_HSI48_PREDIV)
      else if ((tmpreg & RCC_CFGR_PLLSRC) == RCC_PLLSOURCE_HSI48)
 800291c:	6afa      	ldr	r2, [r7, #44]	; 0x2c
 800291e:	23c0      	movs	r3, #192	; 0xc0
 8002920:	025b      	lsls	r3, r3, #9
 8002922:	401a      	ands	r2, r3
 8002924:	23c0      	movs	r3, #192	; 0xc0
 8002926:	025b      	lsls	r3, r3, #9
 8002928:	429a      	cmp	r2, r3
 800292a:	d109      	bne.n	8002940 <HAL_RCC_GetSysClockFreq+0xb8>
      {
        /* HSI48 used as PLL clock source : PLLCLK = HSI48/PREDIV * PLLMUL */
        pllclk = (uint32_t)((uint64_t) HSI48_VALUE / (uint64_t) (prediv)) * ((uint64_t) pllmul);
 800292c:	6ab9      	ldr	r1, [r7, #40]	; 0x28
 800292e:	4814      	ldr	r0, [pc, #80]	; (8002980 <HAL_RCC_GetSysClockFreq+0xf8>)
 8002930:	f7fd fbea 	bl	8000108 <__udivsi3>
 8002934:	0003      	movs	r3, r0
 8002936:	001a      	movs	r2, r3
 8002938:	6a7b      	ldr	r3, [r7, #36]	; 0x24
 800293a:	4353      	muls	r3, r2
 800293c:	637b      	str	r3, [r7, #52]	; 0x34
 800293e:	e008      	b.n	8002952 <HAL_RCC_GetSysClockFreq+0xca>
#endif /* RCC_CFGR_PLLSRC_HSI48_PREDIV */
      else
      {
#if  (defined(STM32F042x6) || defined(STM32F048xx) || defined(STM32F070x6) || defined(STM32F071xB) || defined(STM32F072xB) || defined(STM32F078xx) || defined(STM32F070xB) || defined(STM32F091xC) || defined(STM32F098xx) || defined(STM32F030xC))
        /* HSI used as PLL clock source : PLLCLK = HSI/PREDIV * PLLMUL */
        pllclk = (uint32_t)((uint64_t) HSI_VALUE / (uint64_t) (prediv)) * ((uint64_t) pllmul);
 8002940:	6ab9      	ldr	r1, [r7, #40]	; 0x28
 8002942:	480e      	ldr	r0, [pc, #56]	; (800297c <HAL_RCC_GetSysClockFreq+0xf4>)
 8002944:	f7fd fbe0 	bl	8000108 <__udivsi3>
 8002948:	0003      	movs	r3, r0
 800294a:	001a      	movs	r2, r3
 800294c:	6a7b      	ldr	r3, [r7, #36]	; 0x24
 800294e:	4353      	muls	r3, r2
 8002950:	637b      	str	r3, [r7, #52]	; 0x34
#else
        /* HSI used as PLL clock source : PLLCLK = HSI/2 * PLLMUL */
        pllclk = (uint32_t)((uint64_t) (HSI_VALUE >> 1U) * ((uint64_t) pllmul));
#endif
      }
      sysclockfreq = pllclk;
 8002952:	6b7b      	ldr	r3, [r7, #52]	; 0x34
 8002954:	633b      	str	r3, [r7, #48]	; 0x30
      break;
 8002956:	e005      	b.n	8002964 <HAL_RCC_GetSysClockFreq+0xdc>
    }
#if defined(RCC_CFGR_SWS_HSI48)
    case RCC_SYSCLKSOURCE_STATUS_HSI48:    /* HSI48 used as system clock source */
    {
      sysclockfreq = HSI48_VALUE;
 8002958:	4b09      	ldr	r3, [pc, #36]	; (8002980 <HAL_RCC_GetSysClockFreq+0xf8>)
 800295a:	633b      	str	r3, [r7, #48]	; 0x30
      break;
 800295c:	e002      	b.n	8002964 <HAL_RCC_GetSysClockFreq+0xdc>
    }
#endif /* RCC_CFGR_SWS_HSI48 */
    case RCC_SYSCLKSOURCE_STATUS_HSI:  /* HSI used as system clock source */
    default: /* HSI used as system clock */
    {
      sysclockfreq = HSI_VALUE;
 800295e:	4b07      	ldr	r3, [pc, #28]	; (800297c <HAL_RCC_GetSysClockFreq+0xf4>)
 8002960:	633b      	str	r3, [r7, #48]	; 0x30
      break;
 8002962:	46c0      	nop			; (mov r8, r8)
    }
  }
  return sysclockfreq;
 8002964:	6b3b      	ldr	r3, [r7, #48]	; 0x30
}
 8002966:	0018      	movs	r0, r3
 8002968:	46bd      	mov	sp, r7
 800296a:	b00f      	add	sp, #60	; 0x3c
 800296c:	bd90      	pop	{r4, r7, pc}
 800296e:	46c0      	nop			; (mov r8, r8)
 8002970:	08003954 	.word	0x08003954
 8002974:	08003964 	.word	0x08003964
 8002978:	40021000 	.word	0x40021000
 800297c:	007a1200 	.word	0x007a1200
 8002980:	02dc6c00 	.word	0x02dc6c00

08002984 <HAL_SPI_Init>:
  * @param  hspi pointer to a SPI_HandleTypeDef structure that contains
  *               the configuration information for SPI module.
  * @retval HAL status
  */
HAL_StatusTypeDef HAL_SPI_Init(SPI_HandleTypeDef *hspi)
{
 8002984:	b580      	push	{r7, lr}
 8002986:	b084      	sub	sp, #16
 8002988:	af00      	add	r7, sp, #0
 800298a:	6078      	str	r0, [r7, #4]
  uint32_t frxth;

  /* Check the SPI handle allocation */
  if (hspi == NULL)
 800298c:	687b      	ldr	r3, [r7, #4]
 800298e:	2b00      	cmp	r3, #0
 8002990:	d101      	bne.n	8002996 <HAL_SPI_Init+0x12>
  {
    return HAL_ERROR;
 8002992:	2301      	movs	r3, #1
 8002994:	e08a      	b.n	8002aac <HAL_SPI_Init+0x128>
  {
    assert_param(IS_SPI_CRC_POLYNOMIAL(hspi->Init.CRCPolynomial));
    assert_param(IS_SPI_CRC_LENGTH(hspi->Init.CRCLength));
  }
#else
  hspi->Init.CRCCalculation = SPI_CRCCALCULATION_DISABLE;
 8002996:	687b      	ldr	r3, [r7, #4]
 8002998:	2200      	movs	r2, #0
 800299a:	629a      	str	r2, [r3, #40]	; 0x28
#endif /* USE_SPI_CRC */

  if (hspi->State == HAL_SPI_STATE_RESET)
 800299c:	687b      	ldr	r3, [r7, #4]
 800299e:	225d      	movs	r2, #93	; 0x5d
 80029a0:	5c9b      	ldrb	r3, [r3, r2]
 80029a2:	b2db      	uxtb	r3, r3
 80029a4:	2b00      	cmp	r3, #0
 80029a6:	d107      	bne.n	80029b8 <HAL_SPI_Init+0x34>
  {
    /* Allocate lock resource and initialize it */
    hspi->Lock = HAL_UNLOCKED;
 80029a8:	687b      	ldr	r3, [r7, #4]
 80029aa:	225c      	movs	r2, #92	; 0x5c
 80029ac:	2100      	movs	r1, #0
 80029ae:	5499      	strb	r1, [r3, r2]

    /* Init the low level hardware : GPIO, CLOCK, NVIC... */
    hspi->MspInitCallback(hspi);
#else
    /* Init the low level hardware : GPIO, CLOCK, NVIC... */
    HAL_SPI_MspInit(hspi);
 80029b0:	687b      	ldr	r3, [r7, #4]
 80029b2:	0018      	movs	r0, r3
 80029b4:	f7fe f84a 	bl	8000a4c <HAL_SPI_MspInit>
#endif /* USE_HAL_SPI_REGISTER_CALLBACKS */
  }

  hspi->State = HAL_SPI_STATE_BUSY;
 80029b8:	687b      	ldr	r3, [r7, #4]
 80029ba:	225d      	movs	r2, #93	; 0x5d
 80029bc:	2102      	movs	r1, #2
 80029be:	5499      	strb	r1, [r3, r2]

  /* Disable the selected SPI peripheral */
  __HAL_SPI_DISABLE(hspi);
 80029c0:	687b      	ldr	r3, [r7, #4]
 80029c2:	681b      	ldr	r3, [r3, #0]
 80029c4:	681a      	ldr	r2, [r3, #0]
 80029c6:	687b      	ldr	r3, [r7, #4]
 80029c8:	681b      	ldr	r3, [r3, #0]
 80029ca:	2140      	movs	r1, #64	; 0x40
 80029cc:	438a      	bics	r2, r1
 80029ce:	601a      	str	r2, [r3, #0]

  /* Align by default the rs fifo threshold on the data size */
  if (hspi->Init.DataSize > SPI_DATASIZE_8BIT)
 80029d0:	687b      	ldr	r3, [r7, #4]
 80029d2:	68da      	ldr	r2, [r3, #12]
 80029d4:	23e0      	movs	r3, #224	; 0xe0
 80029d6:	00db      	lsls	r3, r3, #3
 80029d8:	429a      	cmp	r2, r3
 80029da:	d902      	bls.n	80029e2 <HAL_SPI_Init+0x5e>
  {
    frxth = SPI_RXFIFO_THRESHOLD_HF;
 80029dc:	2300      	movs	r3, #0
 80029de:	60fb      	str	r3, [r7, #12]
 80029e0:	e002      	b.n	80029e8 <HAL_SPI_Init+0x64>
  }
  else
  {
    frxth = SPI_RXFIFO_THRESHOLD_QF;
 80029e2:	2380      	movs	r3, #128	; 0x80
 80029e4:	015b      	lsls	r3, r3, #5
 80029e6:	60fb      	str	r3, [r7, #12]
  }

  /* CRC calculation is valid only for 16Bit and 8 Bit */
  if ((hspi->Init.DataSize != SPI_DATASIZE_16BIT) && (hspi->Init.DataSize != SPI_DATASIZE_8BIT))
 80029e8:	687b      	ldr	r3, [r7, #4]
 80029ea:	68da      	ldr	r2, [r3, #12]
 80029ec:	23f0      	movs	r3, #240	; 0xf0
 80029ee:	011b      	lsls	r3, r3, #4
 80029f0:	429a      	cmp	r2, r3
 80029f2:	d008      	beq.n	8002a06 <HAL_SPI_Init+0x82>
 80029f4:	687b      	ldr	r3, [r7, #4]
 80029f6:	68da      	ldr	r2, [r3, #12]
 80029f8:	23e0      	movs	r3, #224	; 0xe0
 80029fa:	00db      	lsls	r3, r3, #3
 80029fc:	429a      	cmp	r2, r3
 80029fe:	d002      	beq.n	8002a06 <HAL_SPI_Init+0x82>
  {
    /* CRC must be disabled */
    hspi->Init.CRCCalculation = SPI_CRCCALCULATION_DISABLE;
 8002a00:	687b      	ldr	r3, [r7, #4]
 8002a02:	2200      	movs	r2, #0
 8002a04:	629a      	str	r2, [r3, #40]	; 0x28
  }

  /* Align the CRC Length on the data size */
  if (hspi->Init.CRCLength == SPI_CRC_LENGTH_DATASIZE)
 8002a06:	687b      	ldr	r3, [r7, #4]
 8002a08:	6b1b      	ldr	r3, [r3, #48]	; 0x30
 8002a0a:	2b00      	cmp	r3, #0
 8002a0c:	d10c      	bne.n	8002a28 <HAL_SPI_Init+0xa4>
  {
    /* CRC Length aligned on the data size : value set by default */
    if (hspi->Init.DataSize > SPI_DATASIZE_8BIT)
 8002a0e:	687b      	ldr	r3, [r7, #4]
 8002a10:	68da      	ldr	r2, [r3, #12]
 8002a12:	23e0      	movs	r3, #224	; 0xe0
 8002a14:	00db      	lsls	r3, r3, #3
 8002a16:	429a      	cmp	r2, r3
 8002a18:	d903      	bls.n	8002a22 <HAL_SPI_Init+0x9e>
    {
      hspi->Init.CRCLength = SPI_CRC_LENGTH_16BIT;
 8002a1a:	687b      	ldr	r3, [r7, #4]
 8002a1c:	2202      	movs	r2, #2
 8002a1e:	631a      	str	r2, [r3, #48]	; 0x30
 8002a20:	e002      	b.n	8002a28 <HAL_SPI_Init+0xa4>
    }
    else
    {
      hspi->Init.CRCLength = SPI_CRC_LENGTH_8BIT;
 8002a22:	687b      	ldr	r3, [r7, #4]
 8002a24:	2201      	movs	r2, #1
 8002a26:	631a      	str	r2, [r3, #48]	; 0x30
  }

  /*----------------------- SPIx CR1 & CR2 Configuration ---------------------*/
  /* Configure : SPI Mode, Communication Mode, Clock polarity and phase, NSS management,
  Communication speed, First bit and CRC calculation state */
  WRITE_REG(hspi->Instance->CR1, (hspi->Init.Mode | hspi->Init.Direction |
 8002a28:	687b      	ldr	r3, [r7, #4]
 8002a2a:	685a      	ldr	r2, [r3, #4]
 8002a2c:	687b      	ldr	r3, [r7, #4]
 8002a2e:	689b      	ldr	r3, [r3, #8]
 8002a30:	431a      	orrs	r2, r3
 8002a32:	687b      	ldr	r3, [r7, #4]
 8002a34:	691b      	ldr	r3, [r3, #16]
 8002a36:	431a      	orrs	r2, r3
 8002a38:	687b      	ldr	r3, [r7, #4]
 8002a3a:	695b      	ldr	r3, [r3, #20]
 8002a3c:	431a      	orrs	r2, r3
 8002a3e:	687b      	ldr	r3, [r7, #4]
 8002a40:	6999      	ldr	r1, [r3, #24]
 8002a42:	2380      	movs	r3, #128	; 0x80
 8002a44:	009b      	lsls	r3, r3, #2
 8002a46:	400b      	ands	r3, r1
 8002a48:	431a      	orrs	r2, r3
 8002a4a:	687b      	ldr	r3, [r7, #4]
 8002a4c:	69db      	ldr	r3, [r3, #28]
 8002a4e:	431a      	orrs	r2, r3
 8002a50:	687b      	ldr	r3, [r7, #4]
 8002a52:	6a1b      	ldr	r3, [r3, #32]
 8002a54:	431a      	orrs	r2, r3
 8002a56:	0011      	movs	r1, r2
 8002a58:	687b      	ldr	r3, [r7, #4]
 8002a5a:	6a9a      	ldr	r2, [r3, #40]	; 0x28
 8002a5c:	687b      	ldr	r3, [r7, #4]
 8002a5e:	681b      	ldr	r3, [r3, #0]
 8002a60:	430a      	orrs	r2, r1
 8002a62:	601a      	str	r2, [r3, #0]
    hspi->Instance->CR1 |= SPI_CR1_CRCL;
  }
#endif /* USE_SPI_CRC */

  /* Configure : NSS management, TI Mode, NSS Pulse, Data size and Rx Fifo threshold */
  WRITE_REG(hspi->Instance->CR2, (((hspi->Init.NSS >> 16U) & SPI_CR2_SSOE) | hspi->Init.TIMode |
 8002a64:	687b      	ldr	r3, [r7, #4]
 8002a66:	699b      	ldr	r3, [r3, #24]
 8002a68:	0c1b      	lsrs	r3, r3, #16
 8002a6a:	2204      	movs	r2, #4
 8002a6c:	401a      	ands	r2, r3
 8002a6e:	687b      	ldr	r3, [r7, #4]
 8002a70:	6a5b      	ldr	r3, [r3, #36]	; 0x24
 8002a72:	431a      	orrs	r2, r3
 8002a74:	687b      	ldr	r3, [r7, #4]
 8002a76:	6b5b      	ldr	r3, [r3, #52]	; 0x34
 8002a78:	431a      	orrs	r2, r3
 8002a7a:	687b      	ldr	r3, [r7, #4]
 8002a7c:	68db      	ldr	r3, [r3, #12]
 8002a7e:	431a      	orrs	r2, r3
 8002a80:	0011      	movs	r1, r2
 8002a82:	687b      	ldr	r3, [r7, #4]
 8002a84:	681b      	ldr	r3, [r3, #0]
 8002a86:	68fa      	ldr	r2, [r7, #12]
 8002a88:	430a      	orrs	r2, r1
 8002a8a:	605a      	str	r2, [r3, #4]
  }
#endif /* USE_SPI_CRC */

#if defined(SPI_I2SCFGR_I2SMOD)
  /* Activate the SPI mode (Make sure that I2SMOD bit in I2SCFGR register is reset) */
  CLEAR_BIT(hspi->Instance->I2SCFGR, SPI_I2SCFGR_I2SMOD);
 8002a8c:	687b      	ldr	r3, [r7, #4]
 8002a8e:	681b      	ldr	r3, [r3, #0]
 8002a90:	69da      	ldr	r2, [r3, #28]
 8002a92:	687b      	ldr	r3, [r7, #4]
 8002a94:	681b      	ldr	r3, [r3, #0]
 8002a96:	4907      	ldr	r1, [pc, #28]	; (8002ab4 <HAL_SPI_Init+0x130>)
 8002a98:	400a      	ands	r2, r1
 8002a9a:	61da      	str	r2, [r3, #28]
#endif /* SPI_I2SCFGR_I2SMOD */

  hspi->ErrorCode = HAL_SPI_ERROR_NONE;
 8002a9c:	687b      	ldr	r3, [r7, #4]
 8002a9e:	2200      	movs	r2, #0
 8002aa0:	661a      	str	r2, [r3, #96]	; 0x60
  hspi->State     = HAL_SPI_STATE_READY;
 8002aa2:	687b      	ldr	r3, [r7, #4]
 8002aa4:	225d      	movs	r2, #93	; 0x5d
 8002aa6:	2101      	movs	r1, #1
 8002aa8:	5499      	strb	r1, [r3, r2]

  return HAL_OK;
 8002aaa:	2300      	movs	r3, #0
}
 8002aac:	0018      	movs	r0, r3
 8002aae:	46bd      	mov	sp, r7
 8002ab0:	b004      	add	sp, #16
 8002ab2:	bd80      	pop	{r7, pc}
 8002ab4:	fffff7ff 	.word	0xfffff7ff

08002ab8 <HAL_SPI_Transmit>:
  * @param  Size amount of data to be sent
  * @param  Timeout Timeout duration
  * @retval HAL status
  */
HAL_StatusTypeDef HAL_SPI_Transmit(SPI_HandleTypeDef *hspi, uint8_t *pData, uint16_t Size, uint32_t Timeout)
{
 8002ab8:	b580      	push	{r7, lr}
 8002aba:	b088      	sub	sp, #32
 8002abc:	af00      	add	r7, sp, #0
 8002abe:	60f8      	str	r0, [r7, #12]
 8002ac0:	60b9      	str	r1, [r7, #8]
 8002ac2:	603b      	str	r3, [r7, #0]
 8002ac4:	1dbb      	adds	r3, r7, #6
 8002ac6:	801a      	strh	r2, [r3, #0]
  uint32_t tickstart;
  HAL_StatusTypeDef errorcode = HAL_OK;
 8002ac8:	231f      	movs	r3, #31
 8002aca:	18fb      	adds	r3, r7, r3
 8002acc:	2200      	movs	r2, #0
 8002ace:	701a      	strb	r2, [r3, #0]

  /* Check Direction parameter */
  assert_param(IS_SPI_DIRECTION_2LINES_OR_1LINE(hspi->Init.Direction));

  /* Process Locked */
  __HAL_LOCK(hspi);
 8002ad0:	68fb      	ldr	r3, [r7, #12]
 8002ad2:	225c      	movs	r2, #92	; 0x5c
 8002ad4:	5c9b      	ldrb	r3, [r3, r2]
 8002ad6:	2b01      	cmp	r3, #1
 8002ad8:	d101      	bne.n	8002ade <HAL_SPI_Transmit+0x26>
 8002ada:	2302      	movs	r3, #2
 8002adc:	e169      	b.n	8002db2 <HAL_SPI_Transmit+0x2fa>
 8002ade:	68fb      	ldr	r3, [r7, #12]
 8002ae0:	225c      	movs	r2, #92	; 0x5c
 8002ae2:	2101      	movs	r1, #1
 8002ae4:	5499      	strb	r1, [r3, r2]

  /* Init tickstart for timeout management*/
  tickstart = HAL_GetTick();
 8002ae6:	f7fe fd59 	bl	800159c <HAL_GetTick>
 8002aea:	0003      	movs	r3, r0
 8002aec:	61bb      	str	r3, [r7, #24]
  initial_TxXferCount = Size;
 8002aee:	2316      	movs	r3, #22
 8002af0:	18fb      	adds	r3, r7, r3
 8002af2:	1dba      	adds	r2, r7, #6
 8002af4:	8812      	ldrh	r2, [r2, #0]
 8002af6:	801a      	strh	r2, [r3, #0]

  if (hspi->State != HAL_SPI_STATE_READY)
 8002af8:	68fb      	ldr	r3, [r7, #12]
 8002afa:	225d      	movs	r2, #93	; 0x5d
 8002afc:	5c9b      	ldrb	r3, [r3, r2]
 8002afe:	b2db      	uxtb	r3, r3
 8002b00:	2b01      	cmp	r3, #1
 8002b02:	d004      	beq.n	8002b0e <HAL_SPI_Transmit+0x56>
  {
    errorcode = HAL_BUSY;
 8002b04:	231f      	movs	r3, #31
 8002b06:	18fb      	adds	r3, r7, r3
 8002b08:	2202      	movs	r2, #2
 8002b0a:	701a      	strb	r2, [r3, #0]
    goto error;
 8002b0c:	e146      	b.n	8002d9c <HAL_SPI_Transmit+0x2e4>
  }

  if ((pData == NULL) || (Size == 0U))
 8002b0e:	68bb      	ldr	r3, [r7, #8]
 8002b10:	2b00      	cmp	r3, #0
 8002b12:	d003      	beq.n	8002b1c <HAL_SPI_Transmit+0x64>
 8002b14:	1dbb      	adds	r3, r7, #6
 8002b16:	881b      	ldrh	r3, [r3, #0]
 8002b18:	2b00      	cmp	r3, #0
 8002b1a:	d104      	bne.n	8002b26 <HAL_SPI_Transmit+0x6e>
  {
    errorcode = HAL_ERROR;
 8002b1c:	231f      	movs	r3, #31
 8002b1e:	18fb      	adds	r3, r7, r3
 8002b20:	2201      	movs	r2, #1
 8002b22:	701a      	strb	r2, [r3, #0]
    goto error;
 8002b24:	e13a      	b.n	8002d9c <HAL_SPI_Transmit+0x2e4>
  }

  /* Set the transaction information */
  hspi->State       = HAL_SPI_STATE_BUSY_TX;
 8002b26:	68fb      	ldr	r3, [r7, #12]
 8002b28:	225d      	movs	r2, #93	; 0x5d
 8002b2a:	2103      	movs	r1, #3
 8002b2c:	5499      	strb	r1, [r3, r2]
  hspi->ErrorCode   = HAL_SPI_ERROR_NONE;
 8002b2e:	68fb      	ldr	r3, [r7, #12]
 8002b30:	2200      	movs	r2, #0
 8002b32:	661a      	str	r2, [r3, #96]	; 0x60
  hspi->pTxBuffPtr  = (uint8_t *)pData;
 8002b34:	68fb      	ldr	r3, [r7, #12]
 8002b36:	68ba      	ldr	r2, [r7, #8]
 8002b38:	639a      	str	r2, [r3, #56]	; 0x38
  hspi->TxXferSize  = Size;
 8002b3a:	68fb      	ldr	r3, [r7, #12]
 8002b3c:	1dba      	adds	r2, r7, #6
 8002b3e:	8812      	ldrh	r2, [r2, #0]
 8002b40:	879a      	strh	r2, [r3, #60]	; 0x3c
  hspi->TxXferCount = Size;
 8002b42:	68fb      	ldr	r3, [r7, #12]
 8002b44:	1dba      	adds	r2, r7, #6
 8002b46:	8812      	ldrh	r2, [r2, #0]
 8002b48:	87da      	strh	r2, [r3, #62]	; 0x3e

  /*Init field not used in handle to zero */
  hspi->pRxBuffPtr  = (uint8_t *)NULL;
 8002b4a:	68fb      	ldr	r3, [r7, #12]
 8002b4c:	2200      	movs	r2, #0
 8002b4e:	641a      	str	r2, [r3, #64]	; 0x40
  hspi->RxXferSize  = 0U;
 8002b50:	68fb      	ldr	r3, [r7, #12]
 8002b52:	2244      	movs	r2, #68	; 0x44
 8002b54:	2100      	movs	r1, #0
 8002b56:	5299      	strh	r1, [r3, r2]
  hspi->RxXferCount = 0U;
 8002b58:	68fb      	ldr	r3, [r7, #12]
 8002b5a:	2246      	movs	r2, #70	; 0x46
 8002b5c:	2100      	movs	r1, #0
 8002b5e:	5299      	strh	r1, [r3, r2]
  hspi->TxISR       = NULL;
 8002b60:	68fb      	ldr	r3, [r7, #12]
 8002b62:	2200      	movs	r2, #0
 8002b64:	651a      	str	r2, [r3, #80]	; 0x50
  hspi->RxISR       = NULL;
 8002b66:	68fb      	ldr	r3, [r7, #12]
 8002b68:	2200      	movs	r2, #0
 8002b6a:	64da      	str	r2, [r3, #76]	; 0x4c

  /* Configure communication direction : 1Line */
  if (hspi->Init.Direction == SPI_DIRECTION_1LINE)
 8002b6c:	68fb      	ldr	r3, [r7, #12]
 8002b6e:	689a      	ldr	r2, [r3, #8]
 8002b70:	2380      	movs	r3, #128	; 0x80
 8002b72:	021b      	lsls	r3, r3, #8
 8002b74:	429a      	cmp	r2, r3
 8002b76:	d108      	bne.n	8002b8a <HAL_SPI_Transmit+0xd2>
  {
    SPI_1LINE_TX(hspi);
 8002b78:	68fb      	ldr	r3, [r7, #12]
 8002b7a:	681b      	ldr	r3, [r3, #0]
 8002b7c:	681a      	ldr	r2, [r3, #0]
 8002b7e:	68fb      	ldr	r3, [r7, #12]
 8002b80:	681b      	ldr	r3, [r3, #0]
 8002b82:	2180      	movs	r1, #128	; 0x80
 8002b84:	01c9      	lsls	r1, r1, #7
 8002b86:	430a      	orrs	r2, r1
 8002b88:	601a      	str	r2, [r3, #0]
    SPI_RESET_CRC(hspi);
  }
#endif /* USE_SPI_CRC */

  /* Check if the SPI is already enabled */
  if ((hspi->Instance->CR1 & SPI_CR1_SPE) != SPI_CR1_SPE)
 8002b8a:	68fb      	ldr	r3, [r7, #12]
 8002b8c:	681b      	ldr	r3, [r3, #0]
 8002b8e:	681b      	ldr	r3, [r3, #0]
 8002b90:	2240      	movs	r2, #64	; 0x40
 8002b92:	4013      	ands	r3, r2
 8002b94:	2b40      	cmp	r3, #64	; 0x40
 8002b96:	d007      	beq.n	8002ba8 <HAL_SPI_Transmit+0xf0>
  {
    /* Enable SPI peripheral */
    __HAL_SPI_ENABLE(hspi);
 8002b98:	68fb      	ldr	r3, [r7, #12]
 8002b9a:	681b      	ldr	r3, [r3, #0]
 8002b9c:	681a      	ldr	r2, [r3, #0]
 8002b9e:	68fb      	ldr	r3, [r7, #12]
 8002ba0:	681b      	ldr	r3, [r3, #0]
 8002ba2:	2140      	movs	r1, #64	; 0x40
 8002ba4:	430a      	orrs	r2, r1
 8002ba6:	601a      	str	r2, [r3, #0]
  }

  /* Transmit data in 16 Bit mode */
  if (hspi->Init.DataSize > SPI_DATASIZE_8BIT)
 8002ba8:	68fb      	ldr	r3, [r7, #12]
 8002baa:	68da      	ldr	r2, [r3, #12]
 8002bac:	23e0      	movs	r3, #224	; 0xe0
 8002bae:	00db      	lsls	r3, r3, #3
 8002bb0:	429a      	cmp	r2, r3
 8002bb2:	d94e      	bls.n	8002c52 <HAL_SPI_Transmit+0x19a>
  {
    if ((hspi->Init.Mode == SPI_MODE_SLAVE) || (initial_TxXferCount == 0x01U))
 8002bb4:	68fb      	ldr	r3, [r7, #12]
 8002bb6:	685b      	ldr	r3, [r3, #4]
 8002bb8:	2b00      	cmp	r3, #0
 8002bba:	d004      	beq.n	8002bc6 <HAL_SPI_Transmit+0x10e>
 8002bbc:	2316      	movs	r3, #22
 8002bbe:	18fb      	adds	r3, r7, r3
 8002bc0:	881b      	ldrh	r3, [r3, #0]
 8002bc2:	2b01      	cmp	r3, #1
 8002bc4:	d13f      	bne.n	8002c46 <HAL_SPI_Transmit+0x18e>
    {
      hspi->Instance->DR = *((uint16_t *)hspi->pTxBuffPtr);
 8002bc6:	68fb      	ldr	r3, [r7, #12]
 8002bc8:	6b9b      	ldr	r3, [r3, #56]	; 0x38
 8002bca:	881a      	ldrh	r2, [r3, #0]
 8002bcc:	68fb      	ldr	r3, [r7, #12]
 8002bce:	681b      	ldr	r3, [r3, #0]
 8002bd0:	60da      	str	r2, [r3, #12]
      hspi->pTxBuffPtr += sizeof(uint16_t);
 8002bd2:	68fb      	ldr	r3, [r7, #12]
 8002bd4:	6b9b      	ldr	r3, [r3, #56]	; 0x38
 8002bd6:	1c9a      	adds	r2, r3, #2
 8002bd8:	68fb      	ldr	r3, [r7, #12]
 8002bda:	639a      	str	r2, [r3, #56]	; 0x38
      hspi->TxXferCount--;
 8002bdc:	68fb      	ldr	r3, [r7, #12]
 8002bde:	8fdb      	ldrh	r3, [r3, #62]	; 0x3e
 8002be0:	b29b      	uxth	r3, r3
 8002be2:	3b01      	subs	r3, #1
 8002be4:	b29a      	uxth	r2, r3
 8002be6:	68fb      	ldr	r3, [r7, #12]
 8002be8:	87da      	strh	r2, [r3, #62]	; 0x3e
    }
    /* Transmit data in 16 Bit mode */
    while (hspi->TxXferCount > 0U)
 8002bea:	e02c      	b.n	8002c46 <HAL_SPI_Transmit+0x18e>
    {
      /* Wait until TXE flag is set to send data */
      if (__HAL_SPI_GET_FLAG(hspi, SPI_FLAG_TXE))
 8002bec:	68fb      	ldr	r3, [r7, #12]
 8002bee:	681b      	ldr	r3, [r3, #0]
 8002bf0:	689b      	ldr	r3, [r3, #8]
 8002bf2:	2202      	movs	r2, #2
 8002bf4:	4013      	ands	r3, r2
 8002bf6:	2b02      	cmp	r3, #2
 8002bf8:	d112      	bne.n	8002c20 <HAL_SPI_Transmit+0x168>
      {
        hspi->Instance->DR = *((uint16_t *)hspi->pTxBuffPtr);
 8002bfa:	68fb      	ldr	r3, [r7, #12]
 8002bfc:	6b9b      	ldr	r3, [r3, #56]	; 0x38
 8002bfe:	881a      	ldrh	r2, [r3, #0]
 8002c00:	68fb      	ldr	r3, [r7, #12]
 8002c02:	681b      	ldr	r3, [r3, #0]
 8002c04:	60da      	str	r2, [r3, #12]
        hspi->pTxBuffPtr += sizeof(uint16_t);
 8002c06:	68fb      	ldr	r3, [r7, #12]
 8002c08:	6b9b      	ldr	r3, [r3, #56]	; 0x38
 8002c0a:	1c9a      	adds	r2, r3, #2
 8002c0c:	68fb      	ldr	r3, [r7, #12]
 8002c0e:	639a      	str	r2, [r3, #56]	; 0x38
        hspi->TxXferCount--;
 8002c10:	68fb      	ldr	r3, [r7, #12]
 8002c12:	8fdb      	ldrh	r3, [r3, #62]	; 0x3e
 8002c14:	b29b      	uxth	r3, r3
 8002c16:	3b01      	subs	r3, #1
 8002c18:	b29a      	uxth	r2, r3
 8002c1a:	68fb      	ldr	r3, [r7, #12]
 8002c1c:	87da      	strh	r2, [r3, #62]	; 0x3e
 8002c1e:	e012      	b.n	8002c46 <HAL_SPI_Transmit+0x18e>
      }
      else
      {
        /* Timeout management */
        if ((((HAL_GetTick() - tickstart) >=  Timeout) && (Timeout != HAL_MAX_DELAY)) || (Timeout == 0U))
 8002c20:	f7fe fcbc 	bl	800159c <HAL_GetTick>
 8002c24:	0002      	movs	r2, r0
 8002c26:	69bb      	ldr	r3, [r7, #24]
 8002c28:	1ad3      	subs	r3, r2, r3
 8002c2a:	683a      	ldr	r2, [r7, #0]
 8002c2c:	429a      	cmp	r2, r3
 8002c2e:	d802      	bhi.n	8002c36 <HAL_SPI_Transmit+0x17e>
 8002c30:	683b      	ldr	r3, [r7, #0]
 8002c32:	3301      	adds	r3, #1
 8002c34:	d102      	bne.n	8002c3c <HAL_SPI_Transmit+0x184>
 8002c36:	683b      	ldr	r3, [r7, #0]
 8002c38:	2b00      	cmp	r3, #0
 8002c3a:	d104      	bne.n	8002c46 <HAL_SPI_Transmit+0x18e>
        {
          errorcode = HAL_TIMEOUT;
 8002c3c:	231f      	movs	r3, #31
 8002c3e:	18fb      	adds	r3, r7, r3
 8002c40:	2203      	movs	r2, #3
 8002c42:	701a      	strb	r2, [r3, #0]
          goto error;
 8002c44:	e0aa      	b.n	8002d9c <HAL_SPI_Transmit+0x2e4>
    while (hspi->TxXferCount > 0U)
 8002c46:	68fb      	ldr	r3, [r7, #12]
 8002c48:	8fdb      	ldrh	r3, [r3, #62]	; 0x3e
 8002c4a:	b29b      	uxth	r3, r3
 8002c4c:	2b00      	cmp	r3, #0
 8002c4e:	d1cd      	bne.n	8002bec <HAL_SPI_Transmit+0x134>
 8002c50:	e080      	b.n	8002d54 <HAL_SPI_Transmit+0x29c>
    }
  }
  /* Transmit data in 8 Bit mode */
  else
  {
    if ((hspi->Init.Mode == SPI_MODE_SLAVE) || (initial_TxXferCount == 0x01U))
 8002c52:	68fb      	ldr	r3, [r7, #12]
 8002c54:	685b      	ldr	r3, [r3, #4]
 8002c56:	2b00      	cmp	r3, #0
 8002c58:	d005      	beq.n	8002c66 <HAL_SPI_Transmit+0x1ae>
 8002c5a:	2316      	movs	r3, #22
 8002c5c:	18fb      	adds	r3, r7, r3
 8002c5e:	881b      	ldrh	r3, [r3, #0]
 8002c60:	2b01      	cmp	r3, #1
 8002c62:	d000      	beq.n	8002c66 <HAL_SPI_Transmit+0x1ae>
 8002c64:	e071      	b.n	8002d4a <HAL_SPI_Transmit+0x292>
    {
      if (hspi->TxXferCount > 1U)
 8002c66:	68fb      	ldr	r3, [r7, #12]
 8002c68:	8fdb      	ldrh	r3, [r3, #62]	; 0x3e
 8002c6a:	b29b      	uxth	r3, r3
 8002c6c:	2b01      	cmp	r3, #1
 8002c6e:	d912      	bls.n	8002c96 <HAL_SPI_Transmit+0x1de>
      {
        /* write on the data register in packing mode */
        hspi->Instance->DR = *((uint16_t *)hspi->pTxBuffPtr);
 8002c70:	68fb      	ldr	r3, [r7, #12]
 8002c72:	6b9b      	ldr	r3, [r3, #56]	; 0x38
 8002c74:	881a      	ldrh	r2, [r3, #0]
 8002c76:	68fb      	ldr	r3, [r7, #12]
 8002c78:	681b      	ldr	r3, [r3, #0]
 8002c7a:	60da      	str	r2, [r3, #12]
        hspi->pTxBuffPtr += sizeof(uint16_t);
 8002c7c:	68fb      	ldr	r3, [r7, #12]
 8002c7e:	6b9b      	ldr	r3, [r3, #56]	; 0x38
 8002c80:	1c9a      	adds	r2, r3, #2
 8002c82:	68fb      	ldr	r3, [r7, #12]
 8002c84:	639a      	str	r2, [r3, #56]	; 0x38
        hspi->TxXferCount -= 2U;
 8002c86:	68fb      	ldr	r3, [r7, #12]
 8002c88:	8fdb      	ldrh	r3, [r3, #62]	; 0x3e
 8002c8a:	b29b      	uxth	r3, r3
 8002c8c:	3b02      	subs	r3, #2
 8002c8e:	b29a      	uxth	r2, r3
 8002c90:	68fb      	ldr	r3, [r7, #12]
 8002c92:	87da      	strh	r2, [r3, #62]	; 0x3e
 8002c94:	e059      	b.n	8002d4a <HAL_SPI_Transmit+0x292>
      }
      else
      {
        *((__IO uint8_t *)&hspi->Instance->DR) = (*hspi->pTxBuffPtr);
 8002c96:	68fb      	ldr	r3, [r7, #12]
 8002c98:	6b9a      	ldr	r2, [r3, #56]	; 0x38
 8002c9a:	68fb      	ldr	r3, [r7, #12]
 8002c9c:	681b      	ldr	r3, [r3, #0]
 8002c9e:	330c      	adds	r3, #12
 8002ca0:	7812      	ldrb	r2, [r2, #0]
 8002ca2:	701a      	strb	r2, [r3, #0]
        hspi->pTxBuffPtr ++;
 8002ca4:	68fb      	ldr	r3, [r7, #12]
 8002ca6:	6b9b      	ldr	r3, [r3, #56]	; 0x38
 8002ca8:	1c5a      	adds	r2, r3, #1
 8002caa:	68fb      	ldr	r3, [r7, #12]
 8002cac:	639a      	str	r2, [r3, #56]	; 0x38
        hspi->TxXferCount--;
 8002cae:	68fb      	ldr	r3, [r7, #12]
 8002cb0:	8fdb      	ldrh	r3, [r3, #62]	; 0x3e
 8002cb2:	b29b      	uxth	r3, r3
 8002cb4:	3b01      	subs	r3, #1
 8002cb6:	b29a      	uxth	r2, r3
 8002cb8:	68fb      	ldr	r3, [r7, #12]
 8002cba:	87da      	strh	r2, [r3, #62]	; 0x3e
      }
    }
    while (hspi->TxXferCount > 0U)
 8002cbc:	e045      	b.n	8002d4a <HAL_SPI_Transmit+0x292>
    {
      /* Wait until TXE flag is set to send data */
      if (__HAL_SPI_GET_FLAG(hspi, SPI_FLAG_TXE))
 8002cbe:	68fb      	ldr	r3, [r7, #12]
 8002cc0:	681b      	ldr	r3, [r3, #0]
 8002cc2:	689b      	ldr	r3, [r3, #8]
 8002cc4:	2202      	movs	r2, #2
 8002cc6:	4013      	ands	r3, r2
 8002cc8:	2b02      	cmp	r3, #2
 8002cca:	d12b      	bne.n	8002d24 <HAL_SPI_Transmit+0x26c>
      {
        if (hspi->TxXferCount > 1U)
 8002ccc:	68fb      	ldr	r3, [r7, #12]
 8002cce:	8fdb      	ldrh	r3, [r3, #62]	; 0x3e
 8002cd0:	b29b      	uxth	r3, r3
 8002cd2:	2b01      	cmp	r3, #1
 8002cd4:	d912      	bls.n	8002cfc <HAL_SPI_Transmit+0x244>
        {
          /* write on the data register in packing mode */
          hspi->Instance->DR = *((uint16_t *)hspi->pTxBuffPtr);
 8002cd6:	68fb      	ldr	r3, [r7, #12]
 8002cd8:	6b9b      	ldr	r3, [r3, #56]	; 0x38
 8002cda:	881a      	ldrh	r2, [r3, #0]
 8002cdc:	68fb      	ldr	r3, [r7, #12]
 8002cde:	681b      	ldr	r3, [r3, #0]
 8002ce0:	60da      	str	r2, [r3, #12]
          hspi->pTxBuffPtr += sizeof(uint16_t);
 8002ce2:	68fb      	ldr	r3, [r7, #12]
 8002ce4:	6b9b      	ldr	r3, [r3, #56]	; 0x38
 8002ce6:	1c9a      	adds	r2, r3, #2
 8002ce8:	68fb      	ldr	r3, [r7, #12]
 8002cea:	639a      	str	r2, [r3, #56]	; 0x38
          hspi->TxXferCount -= 2U;
 8002cec:	68fb      	ldr	r3, [r7, #12]
 8002cee:	8fdb      	ldrh	r3, [r3, #62]	; 0x3e
 8002cf0:	b29b      	uxth	r3, r3
 8002cf2:	3b02      	subs	r3, #2
 8002cf4:	b29a      	uxth	r2, r3
 8002cf6:	68fb      	ldr	r3, [r7, #12]
 8002cf8:	87da      	strh	r2, [r3, #62]	; 0x3e
 8002cfa:	e026      	b.n	8002d4a <HAL_SPI_Transmit+0x292>
        }
        else
        {
          *((__IO uint8_t *)&hspi->Instance->DR) = (*hspi->pTxBuffPtr);
 8002cfc:	68fb      	ldr	r3, [r7, #12]
 8002cfe:	6b9a      	ldr	r2, [r3, #56]	; 0x38
 8002d00:	68fb      	ldr	r3, [r7, #12]
 8002d02:	681b      	ldr	r3, [r3, #0]
 8002d04:	330c      	adds	r3, #12
 8002d06:	7812      	ldrb	r2, [r2, #0]
 8002d08:	701a      	strb	r2, [r3, #0]
          hspi->pTxBuffPtr++;
 8002d0a:	68fb      	ldr	r3, [r7, #12]
 8002d0c:	6b9b      	ldr	r3, [r3, #56]	; 0x38
 8002d0e:	1c5a      	adds	r2, r3, #1
 8002d10:	68fb      	ldr	r3, [r7, #12]
 8002d12:	639a      	str	r2, [r3, #56]	; 0x38
          hspi->TxXferCount--;
 8002d14:	68fb      	ldr	r3, [r7, #12]
 8002d16:	8fdb      	ldrh	r3, [r3, #62]	; 0x3e
 8002d18:	b29b      	uxth	r3, r3
 8002d1a:	3b01      	subs	r3, #1
 8002d1c:	b29a      	uxth	r2, r3
 8002d1e:	68fb      	ldr	r3, [r7, #12]
 8002d20:	87da      	strh	r2, [r3, #62]	; 0x3e
 8002d22:	e012      	b.n	8002d4a <HAL_SPI_Transmit+0x292>
        }
      }
      else
      {
        /* Timeout management */
        if ((((HAL_GetTick() - tickstart) >=  Timeout) && (Timeout != HAL_MAX_DELAY)) || (Timeout == 0U))
 8002d24:	f7fe fc3a 	bl	800159c <HAL_GetTick>
 8002d28:	0002      	movs	r2, r0
 8002d2a:	69bb      	ldr	r3, [r7, #24]
 8002d2c:	1ad3      	subs	r3, r2, r3
 8002d2e:	683a      	ldr	r2, [r7, #0]
 8002d30:	429a      	cmp	r2, r3
 8002d32:	d802      	bhi.n	8002d3a <HAL_SPI_Transmit+0x282>
 8002d34:	683b      	ldr	r3, [r7, #0]
 8002d36:	3301      	adds	r3, #1
 8002d38:	d102      	bne.n	8002d40 <HAL_SPI_Transmit+0x288>
 8002d3a:	683b      	ldr	r3, [r7, #0]
 8002d3c:	2b00      	cmp	r3, #0
 8002d3e:	d104      	bne.n	8002d4a <HAL_SPI_Transmit+0x292>
        {
          errorcode = HAL_TIMEOUT;
 8002d40:	231f      	movs	r3, #31
 8002d42:	18fb      	adds	r3, r7, r3
 8002d44:	2203      	movs	r2, #3
 8002d46:	701a      	strb	r2, [r3, #0]
          goto error;
 8002d48:	e028      	b.n	8002d9c <HAL_SPI_Transmit+0x2e4>
    while (hspi->TxXferCount > 0U)
 8002d4a:	68fb      	ldr	r3, [r7, #12]
 8002d4c:	8fdb      	ldrh	r3, [r3, #62]	; 0x3e
 8002d4e:	b29b      	uxth	r3, r3
 8002d50:	2b00      	cmp	r3, #0
 8002d52:	d1b4      	bne.n	8002cbe <HAL_SPI_Transmit+0x206>
    SET_BIT(hspi->Instance->CR1, SPI_CR1_CRCNEXT);
  }
#endif /* USE_SPI_CRC */

  /* Check the end of the transaction */
  if (SPI_EndRxTxTransaction(hspi, Timeout, tickstart) != HAL_OK)
 8002d54:	69ba      	ldr	r2, [r7, #24]
 8002d56:	6839      	ldr	r1, [r7, #0]
 8002d58:	68fb      	ldr	r3, [r7, #12]
 8002d5a:	0018      	movs	r0, r3
 8002d5c:	f000 f91e 	bl	8002f9c <SPI_EndRxTxTransaction>
 8002d60:	1e03      	subs	r3, r0, #0
 8002d62:	d002      	beq.n	8002d6a <HAL_SPI_Transmit+0x2b2>
  {
    hspi->ErrorCode = HAL_SPI_ERROR_FLAG;
 8002d64:	68fb      	ldr	r3, [r7, #12]
 8002d66:	2220      	movs	r2, #32
 8002d68:	661a      	str	r2, [r3, #96]	; 0x60
  }

  /* Clear overrun flag in 2 Lines communication mode because received is not read */
  if (hspi->Init.Direction == SPI_DIRECTION_2LINES)
 8002d6a:	68fb      	ldr	r3, [r7, #12]
 8002d6c:	689b      	ldr	r3, [r3, #8]
 8002d6e:	2b00      	cmp	r3, #0
 8002d70:	d10a      	bne.n	8002d88 <HAL_SPI_Transmit+0x2d0>
  {
    __HAL_SPI_CLEAR_OVRFLAG(hspi);
 8002d72:	2300      	movs	r3, #0
 8002d74:	613b      	str	r3, [r7, #16]
 8002d76:	68fb      	ldr	r3, [r7, #12]
 8002d78:	681b      	ldr	r3, [r3, #0]
 8002d7a:	68db      	ldr	r3, [r3, #12]
 8002d7c:	613b      	str	r3, [r7, #16]
 8002d7e:	68fb      	ldr	r3, [r7, #12]
 8002d80:	681b      	ldr	r3, [r3, #0]
 8002d82:	689b      	ldr	r3, [r3, #8]
 8002d84:	613b      	str	r3, [r7, #16]
 8002d86:	693b      	ldr	r3, [r7, #16]
  }

  if (hspi->ErrorCode != HAL_SPI_ERROR_NONE)
 8002d88:	68fb      	ldr	r3, [r7, #12]
 8002d8a:	6e1b      	ldr	r3, [r3, #96]	; 0x60
 8002d8c:	2b00      	cmp	r3, #0
 8002d8e:	d004      	beq.n	8002d9a <HAL_SPI_Transmit+0x2e2>
  {
    errorcode = HAL_ERROR;
 8002d90:	231f      	movs	r3, #31
 8002d92:	18fb      	adds	r3, r7, r3
 8002d94:	2201      	movs	r2, #1
 8002d96:	701a      	strb	r2, [r3, #0]
 8002d98:	e000      	b.n	8002d9c <HAL_SPI_Transmit+0x2e4>
  }

error:
 8002d9a:	46c0      	nop			; (mov r8, r8)
  hspi->State = HAL_SPI_STATE_READY;
 8002d9c:	68fb      	ldr	r3, [r7, #12]
 8002d9e:	225d      	movs	r2, #93	; 0x5d
 8002da0:	2101      	movs	r1, #1
 8002da2:	5499      	strb	r1, [r3, r2]
  /* Process Unlocked */
  __HAL_UNLOCK(hspi);
 8002da4:	68fb      	ldr	r3, [r7, #12]
 8002da6:	225c      	movs	r2, #92	; 0x5c
 8002da8:	2100      	movs	r1, #0
 8002daa:	5499      	strb	r1, [r3, r2]
  return errorcode;
 8002dac:	231f      	movs	r3, #31
 8002dae:	18fb      	adds	r3, r7, r3
 8002db0:	781b      	ldrb	r3, [r3, #0]
}
 8002db2:	0018      	movs	r0, r3
 8002db4:	46bd      	mov	sp, r7
 8002db6:	b008      	add	sp, #32
 8002db8:	bd80      	pop	{r7, pc}

08002dba <HAL_SPI_GetState>:
  * @param  hspi pointer to a SPI_HandleTypeDef structure that contains
  *               the configuration information for SPI module.
  * @retval SPI state
  */
HAL_SPI_StateTypeDef HAL_SPI_GetState(SPI_HandleTypeDef *hspi)
{
 8002dba:	b580      	push	{r7, lr}
 8002dbc:	b082      	sub	sp, #8
 8002dbe:	af00      	add	r7, sp, #0
 8002dc0:	6078      	str	r0, [r7, #4]
  /* Return SPI handle state */
  return hspi->State;
 8002dc2:	687b      	ldr	r3, [r7, #4]
 8002dc4:	225d      	movs	r2, #93	; 0x5d
 8002dc6:	5c9b      	ldrb	r3, [r3, r2]
 8002dc8:	b2db      	uxtb	r3, r3
}
 8002dca:	0018      	movs	r0, r3
 8002dcc:	46bd      	mov	sp, r7
 8002dce:	b002      	add	sp, #8
 8002dd0:	bd80      	pop	{r7, pc}
	...

08002dd4 <SPI_WaitFlagStateUntilTimeout>:
  * @param  Tickstart tick start value
  * @retval HAL status
  */
static HAL_StatusTypeDef SPI_WaitFlagStateUntilTimeout(SPI_HandleTypeDef *hspi, uint32_t Flag, FlagStatus State,
                                                       uint32_t Timeout, uint32_t Tickstart)
{
 8002dd4:	b580      	push	{r7, lr}
 8002dd6:	b084      	sub	sp, #16
 8002dd8:	af00      	add	r7, sp, #0
 8002dda:	60f8      	str	r0, [r7, #12]
 8002ddc:	60b9      	str	r1, [r7, #8]
 8002dde:	603b      	str	r3, [r7, #0]
 8002de0:	1dfb      	adds	r3, r7, #7
 8002de2:	701a      	strb	r2, [r3, #0]
  while ((__HAL_SPI_GET_FLAG(hspi, Flag) ? SET : RESET) != State)
 8002de4:	e050      	b.n	8002e88 <SPI_WaitFlagStateUntilTimeout+0xb4>
  {
    if (Timeout != HAL_MAX_DELAY)
 8002de6:	683b      	ldr	r3, [r7, #0]
 8002de8:	3301      	adds	r3, #1
 8002dea:	d04d      	beq.n	8002e88 <SPI_WaitFlagStateUntilTimeout+0xb4>
    {
      if (((HAL_GetTick() - Tickstart) >= Timeout) || (Timeout == 0U))
 8002dec:	f7fe fbd6 	bl	800159c <HAL_GetTick>
 8002df0:	0002      	movs	r2, r0
 8002df2:	69bb      	ldr	r3, [r7, #24]
 8002df4:	1ad3      	subs	r3, r2, r3
 8002df6:	683a      	ldr	r2, [r7, #0]
 8002df8:	429a      	cmp	r2, r3
 8002dfa:	d902      	bls.n	8002e02 <SPI_WaitFlagStateUntilTimeout+0x2e>
 8002dfc:	683b      	ldr	r3, [r7, #0]
 8002dfe:	2b00      	cmp	r3, #0
 8002e00:	d142      	bne.n	8002e88 <SPI_WaitFlagStateUntilTimeout+0xb4>
        /* Disable the SPI and reset the CRC: the CRC value should be cleared
        on both master and slave sides in order to resynchronize the master
        and slave for their respective CRC calculation */

        /* Disable TXE, RXNE and ERR interrupts for the interrupt process */
        __HAL_SPI_DISABLE_IT(hspi, (SPI_IT_TXE | SPI_IT_RXNE | SPI_IT_ERR));
 8002e02:	68fb      	ldr	r3, [r7, #12]
 8002e04:	681b      	ldr	r3, [r3, #0]
 8002e06:	685a      	ldr	r2, [r3, #4]
 8002e08:	68fb      	ldr	r3, [r7, #12]
 8002e0a:	681b      	ldr	r3, [r3, #0]
 8002e0c:	21e0      	movs	r1, #224	; 0xe0
 8002e0e:	438a      	bics	r2, r1
 8002e10:	605a      	str	r2, [r3, #4]

        if ((hspi->Init.Mode == SPI_MODE_MASTER) && ((hspi->Init.Direction == SPI_DIRECTION_1LINE)
 8002e12:	68fb      	ldr	r3, [r7, #12]
 8002e14:	685a      	ldr	r2, [r3, #4]
 8002e16:	2382      	movs	r3, #130	; 0x82
 8002e18:	005b      	lsls	r3, r3, #1
 8002e1a:	429a      	cmp	r2, r3
 8002e1c:	d113      	bne.n	8002e46 <SPI_WaitFlagStateUntilTimeout+0x72>
 8002e1e:	68fb      	ldr	r3, [r7, #12]
 8002e20:	689a      	ldr	r2, [r3, #8]
 8002e22:	2380      	movs	r3, #128	; 0x80
 8002e24:	021b      	lsls	r3, r3, #8
 8002e26:	429a      	cmp	r2, r3
 8002e28:	d005      	beq.n	8002e36 <SPI_WaitFlagStateUntilTimeout+0x62>
                                                     || (hspi->Init.Direction == SPI_DIRECTION_2LINES_RXONLY)))
 8002e2a:	68fb      	ldr	r3, [r7, #12]
 8002e2c:	689a      	ldr	r2, [r3, #8]
 8002e2e:	2380      	movs	r3, #128	; 0x80
 8002e30:	00db      	lsls	r3, r3, #3
 8002e32:	429a      	cmp	r2, r3
 8002e34:	d107      	bne.n	8002e46 <SPI_WaitFlagStateUntilTimeout+0x72>
        {
          /* Disable SPI peripheral */
          __HAL_SPI_DISABLE(hspi);
 8002e36:	68fb      	ldr	r3, [r7, #12]
 8002e38:	681b      	ldr	r3, [r3, #0]
 8002e3a:	681a      	ldr	r2, [r3, #0]
 8002e3c:	68fb      	ldr	r3, [r7, #12]
 8002e3e:	681b      	ldr	r3, [r3, #0]
 8002e40:	2140      	movs	r1, #64	; 0x40
 8002e42:	438a      	bics	r2, r1
 8002e44:	601a      	str	r2, [r3, #0]
        }

        /* Reset CRC Calculation */
        if (hspi->Init.CRCCalculation == SPI_CRCCALCULATION_ENABLE)
 8002e46:	68fb      	ldr	r3, [r7, #12]
 8002e48:	6a9a      	ldr	r2, [r3, #40]	; 0x28
 8002e4a:	2380      	movs	r3, #128	; 0x80
 8002e4c:	019b      	lsls	r3, r3, #6
 8002e4e:	429a      	cmp	r2, r3
 8002e50:	d110      	bne.n	8002e74 <SPI_WaitFlagStateUntilTimeout+0xa0>
        {
          SPI_RESET_CRC(hspi);
 8002e52:	68fb      	ldr	r3, [r7, #12]
 8002e54:	681b      	ldr	r3, [r3, #0]
 8002e56:	681a      	ldr	r2, [r3, #0]
 8002e58:	68fb      	ldr	r3, [r7, #12]
 8002e5a:	681b      	ldr	r3, [r3, #0]
 8002e5c:	4914      	ldr	r1, [pc, #80]	; (8002eb0 <SPI_WaitFlagStateUntilTimeout+0xdc>)
 8002e5e:	400a      	ands	r2, r1
 8002e60:	601a      	str	r2, [r3, #0]
 8002e62:	68fb      	ldr	r3, [r7, #12]
 8002e64:	681b      	ldr	r3, [r3, #0]
 8002e66:	681a      	ldr	r2, [r3, #0]
 8002e68:	68fb      	ldr	r3, [r7, #12]
 8002e6a:	681b      	ldr	r3, [r3, #0]
 8002e6c:	2180      	movs	r1, #128	; 0x80
 8002e6e:	0189      	lsls	r1, r1, #6
 8002e70:	430a      	orrs	r2, r1
 8002e72:	601a      	str	r2, [r3, #0]
        }

        hspi->State = HAL_SPI_STATE_READY;
 8002e74:	68fb      	ldr	r3, [r7, #12]
 8002e76:	225d      	movs	r2, #93	; 0x5d
 8002e78:	2101      	movs	r1, #1
 8002e7a:	5499      	strb	r1, [r3, r2]

        /* Process Unlocked */
        __HAL_UNLOCK(hspi);
 8002e7c:	68fb      	ldr	r3, [r7, #12]
 8002e7e:	225c      	movs	r2, #92	; 0x5c
 8002e80:	2100      	movs	r1, #0
 8002e82:	5499      	strb	r1, [r3, r2]

        return HAL_TIMEOUT;
 8002e84:	2303      	movs	r3, #3
 8002e86:	e00f      	b.n	8002ea8 <SPI_WaitFlagStateUntilTimeout+0xd4>
  while ((__HAL_SPI_GET_FLAG(hspi, Flag) ? SET : RESET) != State)
 8002e88:	68fb      	ldr	r3, [r7, #12]
 8002e8a:	681b      	ldr	r3, [r3, #0]
 8002e8c:	689b      	ldr	r3, [r3, #8]
 8002e8e:	68ba      	ldr	r2, [r7, #8]
 8002e90:	4013      	ands	r3, r2
 8002e92:	68ba      	ldr	r2, [r7, #8]
 8002e94:	1ad3      	subs	r3, r2, r3
 8002e96:	425a      	negs	r2, r3
 8002e98:	4153      	adcs	r3, r2
 8002e9a:	b2db      	uxtb	r3, r3
 8002e9c:	001a      	movs	r2, r3
 8002e9e:	1dfb      	adds	r3, r7, #7
 8002ea0:	781b      	ldrb	r3, [r3, #0]
 8002ea2:	429a      	cmp	r2, r3
 8002ea4:	d19f      	bne.n	8002de6 <SPI_WaitFlagStateUntilTimeout+0x12>
      }
    }
  }

  return HAL_OK;
 8002ea6:	2300      	movs	r3, #0
}
 8002ea8:	0018      	movs	r0, r3
 8002eaa:	46bd      	mov	sp, r7
 8002eac:	b004      	add	sp, #16
 8002eae:	bd80      	pop	{r7, pc}
 8002eb0:	ffffdfff 	.word	0xffffdfff

08002eb4 <SPI_WaitFifoStateUntilTimeout>:
  * @param  Tickstart tick start value
  * @retval HAL status
  */
static HAL_StatusTypeDef SPI_WaitFifoStateUntilTimeout(SPI_HandleTypeDef *hspi, uint32_t Fifo, uint32_t State,
                                                       uint32_t Timeout, uint32_t Tickstart)
{
 8002eb4:	b580      	push	{r7, lr}
 8002eb6:	b084      	sub	sp, #16
 8002eb8:	af00      	add	r7, sp, #0
 8002eba:	60f8      	str	r0, [r7, #12]
 8002ebc:	60b9      	str	r1, [r7, #8]
 8002ebe:	607a      	str	r2, [r7, #4]
 8002ec0:	603b      	str	r3, [r7, #0]
  while ((hspi->Instance->SR & Fifo) != State)
 8002ec2:	e05c      	b.n	8002f7e <SPI_WaitFifoStateUntilTimeout+0xca>
  {
    if ((Fifo == SPI_SR_FRLVL) && (State == SPI_FRLVL_EMPTY))
 8002ec4:	68ba      	ldr	r2, [r7, #8]
 8002ec6:	23c0      	movs	r3, #192	; 0xc0
 8002ec8:	00db      	lsls	r3, r3, #3
 8002eca:	429a      	cmp	r2, r3
 8002ecc:	d106      	bne.n	8002edc <SPI_WaitFifoStateUntilTimeout+0x28>
 8002ece:	687b      	ldr	r3, [r7, #4]
 8002ed0:	2b00      	cmp	r3, #0
 8002ed2:	d103      	bne.n	8002edc <SPI_WaitFifoStateUntilTimeout+0x28>
    {
      /* Read 8bit CRC to flush Data Register */
      READ_REG(*((__IO uint8_t *)&hspi->Instance->DR));
 8002ed4:	68fb      	ldr	r3, [r7, #12]
 8002ed6:	681b      	ldr	r3, [r3, #0]
 8002ed8:	330c      	adds	r3, #12
 8002eda:	781b      	ldrb	r3, [r3, #0]
    }

    if (Timeout != HAL_MAX_DELAY)
 8002edc:	683b      	ldr	r3, [r7, #0]
 8002ede:	3301      	adds	r3, #1
 8002ee0:	d04d      	beq.n	8002f7e <SPI_WaitFifoStateUntilTimeout+0xca>
    {
      if (((HAL_GetTick() - Tickstart) >= Timeout) || (Timeout == 0U))
 8002ee2:	f7fe fb5b 	bl	800159c <HAL_GetTick>
 8002ee6:	0002      	movs	r2, r0
 8002ee8:	69bb      	ldr	r3, [r7, #24]
 8002eea:	1ad3      	subs	r3, r2, r3
 8002eec:	683a      	ldr	r2, [r7, #0]
 8002eee:	429a      	cmp	r2, r3
 8002ef0:	d902      	bls.n	8002ef8 <SPI_WaitFifoStateUntilTimeout+0x44>
 8002ef2:	683b      	ldr	r3, [r7, #0]
 8002ef4:	2b00      	cmp	r3, #0
 8002ef6:	d142      	bne.n	8002f7e <SPI_WaitFifoStateUntilTimeout+0xca>
        /* Disable the SPI and reset the CRC: the CRC value should be cleared
           on both master and slave sides in order to resynchronize the master
           and slave for their respective CRC calculation */

        /* Disable TXE, RXNE and ERR interrupts for the interrupt process */
        __HAL_SPI_DISABLE_IT(hspi, (SPI_IT_TXE | SPI_IT_RXNE | SPI_IT_ERR));
 8002ef8:	68fb      	ldr	r3, [r7, #12]
 8002efa:	681b      	ldr	r3, [r3, #0]
 8002efc:	685a      	ldr	r2, [r3, #4]
 8002efe:	68fb      	ldr	r3, [r7, #12]
 8002f00:	681b      	ldr	r3, [r3, #0]
 8002f02:	21e0      	movs	r1, #224	; 0xe0
 8002f04:	438a      	bics	r2, r1
 8002f06:	605a      	str	r2, [r3, #4]

        if ((hspi->Init.Mode == SPI_MODE_MASTER) && ((hspi->Init.Direction == SPI_DIRECTION_1LINE)
 8002f08:	68fb      	ldr	r3, [r7, #12]
 8002f0a:	685a      	ldr	r2, [r3, #4]
 8002f0c:	2382      	movs	r3, #130	; 0x82
 8002f0e:	005b      	lsls	r3, r3, #1
 8002f10:	429a      	cmp	r2, r3
 8002f12:	d113      	bne.n	8002f3c <SPI_WaitFifoStateUntilTimeout+0x88>
 8002f14:	68fb      	ldr	r3, [r7, #12]
 8002f16:	689a      	ldr	r2, [r3, #8]
 8002f18:	2380      	movs	r3, #128	; 0x80
 8002f1a:	021b      	lsls	r3, r3, #8
 8002f1c:	429a      	cmp	r2, r3
 8002f1e:	d005      	beq.n	8002f2c <SPI_WaitFifoStateUntilTimeout+0x78>
                                                     || (hspi->Init.Direction == SPI_DIRECTION_2LINES_RXONLY)))
 8002f20:	68fb      	ldr	r3, [r7, #12]
 8002f22:	689a      	ldr	r2, [r3, #8]
 8002f24:	2380      	movs	r3, #128	; 0x80
 8002f26:	00db      	lsls	r3, r3, #3
 8002f28:	429a      	cmp	r2, r3
 8002f2a:	d107      	bne.n	8002f3c <SPI_WaitFifoStateUntilTimeout+0x88>
        {
          /* Disable SPI peripheral */
          __HAL_SPI_DISABLE(hspi);
 8002f2c:	68fb      	ldr	r3, [r7, #12]
 8002f2e:	681b      	ldr	r3, [r3, #0]
 8002f30:	681a      	ldr	r2, [r3, #0]
 8002f32:	68fb      	ldr	r3, [r7, #12]
 8002f34:	681b      	ldr	r3, [r3, #0]
 8002f36:	2140      	movs	r1, #64	; 0x40
 8002f38:	438a      	bics	r2, r1
 8002f3a:	601a      	str	r2, [r3, #0]
        }

        /* Reset CRC Calculation */
        if (hspi->Init.CRCCalculation == SPI_CRCCALCULATION_ENABLE)
 8002f3c:	68fb      	ldr	r3, [r7, #12]
 8002f3e:	6a9a      	ldr	r2, [r3, #40]	; 0x28
 8002f40:	2380      	movs	r3, #128	; 0x80
 8002f42:	019b      	lsls	r3, r3, #6
 8002f44:	429a      	cmp	r2, r3
 8002f46:	d110      	bne.n	8002f6a <SPI_WaitFifoStateUntilTimeout+0xb6>
        {
          SPI_RESET_CRC(hspi);
 8002f48:	68fb      	ldr	r3, [r7, #12]
 8002f4a:	681b      	ldr	r3, [r3, #0]
 8002f4c:	681a      	ldr	r2, [r3, #0]
 8002f4e:	68fb      	ldr	r3, [r7, #12]
 8002f50:	681b      	ldr	r3, [r3, #0]
 8002f52:	4911      	ldr	r1, [pc, #68]	; (8002f98 <SPI_WaitFifoStateUntilTimeout+0xe4>)
 8002f54:	400a      	ands	r2, r1
 8002f56:	601a      	str	r2, [r3, #0]
 8002f58:	68fb      	ldr	r3, [r7, #12]
 8002f5a:	681b      	ldr	r3, [r3, #0]
 8002f5c:	681a      	ldr	r2, [r3, #0]
 8002f5e:	68fb      	ldr	r3, [r7, #12]
 8002f60:	681b      	ldr	r3, [r3, #0]
 8002f62:	2180      	movs	r1, #128	; 0x80
 8002f64:	0189      	lsls	r1, r1, #6
 8002f66:	430a      	orrs	r2, r1
 8002f68:	601a      	str	r2, [r3, #0]
        }

        hspi->State = HAL_SPI_STATE_READY;
 8002f6a:	68fb      	ldr	r3, [r7, #12]
 8002f6c:	225d      	movs	r2, #93	; 0x5d
 8002f6e:	2101      	movs	r1, #1
 8002f70:	5499      	strb	r1, [r3, r2]

        /* Process Unlocked */
        __HAL_UNLOCK(hspi);
 8002f72:	68fb      	ldr	r3, [r7, #12]
 8002f74:	225c      	movs	r2, #92	; 0x5c
 8002f76:	2100      	movs	r1, #0
 8002f78:	5499      	strb	r1, [r3, r2]

        return HAL_TIMEOUT;
 8002f7a:	2303      	movs	r3, #3
 8002f7c:	e008      	b.n	8002f90 <SPI_WaitFifoStateUntilTimeout+0xdc>
  while ((hspi->Instance->SR & Fifo) != State)
 8002f7e:	68fb      	ldr	r3, [r7, #12]
 8002f80:	681b      	ldr	r3, [r3, #0]
 8002f82:	689b      	ldr	r3, [r3, #8]
 8002f84:	68ba      	ldr	r2, [r7, #8]
 8002f86:	4013      	ands	r3, r2
 8002f88:	687a      	ldr	r2, [r7, #4]
 8002f8a:	429a      	cmp	r2, r3
 8002f8c:	d19a      	bne.n	8002ec4 <SPI_WaitFifoStateUntilTimeout+0x10>
      }
    }
  }

  return HAL_OK;
 8002f8e:	2300      	movs	r3, #0
}
 8002f90:	0018      	movs	r0, r3
 8002f92:	46bd      	mov	sp, r7
 8002f94:	b004      	add	sp, #16
 8002f96:	bd80      	pop	{r7, pc}
 8002f98:	ffffdfff 	.word	0xffffdfff

08002f9c <SPI_EndRxTxTransaction>:
  * @param  Timeout Timeout duration
  * @param  Tickstart tick start value
  * @retval HAL status
  */
static HAL_StatusTypeDef SPI_EndRxTxTransaction(SPI_HandleTypeDef *hspi, uint32_t Timeout, uint32_t Tickstart)
{
 8002f9c:	b580      	push	{r7, lr}
 8002f9e:	b086      	sub	sp, #24
 8002fa0:	af02      	add	r7, sp, #8
 8002fa2:	60f8      	str	r0, [r7, #12]
 8002fa4:	60b9      	str	r1, [r7, #8]
 8002fa6:	607a      	str	r2, [r7, #4]
  /* Control if the TX fifo is empty */
  if (SPI_WaitFifoStateUntilTimeout(hspi, SPI_FLAG_FTLVL, SPI_FTLVL_EMPTY, Timeout, Tickstart) != HAL_OK)
 8002fa8:	68ba      	ldr	r2, [r7, #8]
 8002faa:	23c0      	movs	r3, #192	; 0xc0
 8002fac:	0159      	lsls	r1, r3, #5
 8002fae:	68f8      	ldr	r0, [r7, #12]
 8002fb0:	687b      	ldr	r3, [r7, #4]
 8002fb2:	9300      	str	r3, [sp, #0]
 8002fb4:	0013      	movs	r3, r2
 8002fb6:	2200      	movs	r2, #0
 8002fb8:	f7ff ff7c 	bl	8002eb4 <SPI_WaitFifoStateUntilTimeout>
 8002fbc:	1e03      	subs	r3, r0, #0
 8002fbe:	d007      	beq.n	8002fd0 <SPI_EndRxTxTransaction+0x34>
  {
    SET_BIT(hspi->ErrorCode, HAL_SPI_ERROR_FLAG);
 8002fc0:	68fb      	ldr	r3, [r7, #12]
 8002fc2:	6e1b      	ldr	r3, [r3, #96]	; 0x60
 8002fc4:	2220      	movs	r2, #32
 8002fc6:	431a      	orrs	r2, r3
 8002fc8:	68fb      	ldr	r3, [r7, #12]
 8002fca:	661a      	str	r2, [r3, #96]	; 0x60
    return HAL_TIMEOUT;
 8002fcc:	2303      	movs	r3, #3
 8002fce:	e027      	b.n	8003020 <SPI_EndRxTxTransaction+0x84>
  }

  /* Control the BSY flag */
  if (SPI_WaitFlagStateUntilTimeout(hspi, SPI_FLAG_BSY, RESET, Timeout, Tickstart) != HAL_OK)
 8002fd0:	68ba      	ldr	r2, [r7, #8]
 8002fd2:	68f8      	ldr	r0, [r7, #12]
 8002fd4:	687b      	ldr	r3, [r7, #4]
 8002fd6:	9300      	str	r3, [sp, #0]
 8002fd8:	0013      	movs	r3, r2
 8002fda:	2200      	movs	r2, #0
 8002fdc:	2180      	movs	r1, #128	; 0x80
 8002fde:	f7ff fef9 	bl	8002dd4 <SPI_WaitFlagStateUntilTimeout>
 8002fe2:	1e03      	subs	r3, r0, #0
 8002fe4:	d007      	beq.n	8002ff6 <SPI_EndRxTxTransaction+0x5a>
  {
    SET_BIT(hspi->ErrorCode, HAL_SPI_ERROR_FLAG);
 8002fe6:	68fb      	ldr	r3, [r7, #12]
 8002fe8:	6e1b      	ldr	r3, [r3, #96]	; 0x60
 8002fea:	2220      	movs	r2, #32
 8002fec:	431a      	orrs	r2, r3
 8002fee:	68fb      	ldr	r3, [r7, #12]
 8002ff0:	661a      	str	r2, [r3, #96]	; 0x60
    return HAL_TIMEOUT;
 8002ff2:	2303      	movs	r3, #3
 8002ff4:	e014      	b.n	8003020 <SPI_EndRxTxTransaction+0x84>
  }

  /* Control if the RX fifo is empty */
  if (SPI_WaitFifoStateUntilTimeout(hspi, SPI_FLAG_FRLVL, SPI_FRLVL_EMPTY, Timeout, Tickstart) != HAL_OK)
 8002ff6:	68ba      	ldr	r2, [r7, #8]
 8002ff8:	23c0      	movs	r3, #192	; 0xc0
 8002ffa:	00d9      	lsls	r1, r3, #3
 8002ffc:	68f8      	ldr	r0, [r7, #12]
 8002ffe:	687b      	ldr	r3, [r7, #4]
 8003000:	9300      	str	r3, [sp, #0]
 8003002:	0013      	movs	r3, r2
 8003004:	2200      	movs	r2, #0
 8003006:	f7ff ff55 	bl	8002eb4 <SPI_WaitFifoStateUntilTimeout>
 800300a:	1e03      	subs	r3, r0, #0
 800300c:	d007      	beq.n	800301e <SPI_EndRxTxTransaction+0x82>
  {
    SET_BIT(hspi->ErrorCode, HAL_SPI_ERROR_FLAG);
 800300e:	68fb      	ldr	r3, [r7, #12]
 8003010:	6e1b      	ldr	r3, [r3, #96]	; 0x60
 8003012:	2220      	movs	r2, #32
 8003014:	431a      	orrs	r2, r3
 8003016:	68fb      	ldr	r3, [r7, #12]
 8003018:	661a      	str	r2, [r3, #96]	; 0x60
    return HAL_TIMEOUT;
 800301a:	2303      	movs	r3, #3
 800301c:	e000      	b.n	8003020 <SPI_EndRxTxTransaction+0x84>
  }

  return HAL_OK;
 800301e:	2300      	movs	r3, #0
}
 8003020:	0018      	movs	r0, r3
 8003022:	46bd      	mov	sp, r7
 8003024:	b004      	add	sp, #16
 8003026:	bd80      	pop	{r7, pc}

08003028 <HAL_TIM_Base_Init>:
  *         Ex: call @ref HAL_TIM_Base_DeInit() before HAL_TIM_Base_Init()
  * @param  htim TIM Base handle
  * @retval HAL status
  */
HAL_StatusTypeDef HAL_TIM_Base_Init(TIM_HandleTypeDef *htim)
{
 8003028:	b580      	push	{r7, lr}
 800302a:	b082      	sub	sp, #8
 800302c:	af00      	add	r7, sp, #0
 800302e:	6078      	str	r0, [r7, #4]
  /* Check the TIM handle allocation */
  if (htim == NULL)
 8003030:	687b      	ldr	r3, [r7, #4]
 8003032:	2b00      	cmp	r3, #0
 8003034:	d101      	bne.n	800303a <HAL_TIM_Base_Init+0x12>
  {
    return HAL_ERROR;
 8003036:	2301      	movs	r3, #1
 8003038:	e01e      	b.n	8003078 <HAL_TIM_Base_Init+0x50>
  assert_param(IS_TIM_INSTANCE(htim->Instance));
  assert_param(IS_TIM_COUNTER_MODE(htim->Init.CounterMode));
  assert_param(IS_TIM_CLOCKDIVISION_DIV(htim->Init.ClockDivision));
  assert_param(IS_TIM_AUTORELOAD_PRELOAD(htim->Init.AutoReloadPreload));

  if (htim->State == HAL_TIM_STATE_RESET)
 800303a:	687b      	ldr	r3, [r7, #4]
 800303c:	223d      	movs	r2, #61	; 0x3d
 800303e:	5c9b      	ldrb	r3, [r3, r2]
 8003040:	b2db      	uxtb	r3, r3
 8003042:	2b00      	cmp	r3, #0
 8003044:	d107      	bne.n	8003056 <HAL_TIM_Base_Init+0x2e>
  {
    /* Allocate lock resource and initialize it */
    htim->Lock = HAL_UNLOCKED;
 8003046:	687b      	ldr	r3, [r7, #4]
 8003048:	223c      	movs	r2, #60	; 0x3c
 800304a:	2100      	movs	r1, #0
 800304c:	5499      	strb	r1, [r3, r2]
    }
    /* Init the low level hardware : GPIO, CLOCK, NVIC */
    htim->Base_MspInitCallback(htim);
#else
    /* Init the low level hardware : GPIO, CLOCK, NVIC */
    HAL_TIM_Base_MspInit(htim);
 800304e:	687b      	ldr	r3, [r7, #4]
 8003050:	0018      	movs	r0, r3
 8003052:	f7fd fd49 	bl	8000ae8 <HAL_TIM_Base_MspInit>
#endif /* USE_HAL_TIM_REGISTER_CALLBACKS */
  }

  /* Set the TIM state */
  htim->State = HAL_TIM_STATE_BUSY;
 8003056:	687b      	ldr	r3, [r7, #4]
 8003058:	223d      	movs	r2, #61	; 0x3d
 800305a:	2102      	movs	r1, #2
 800305c:	5499      	strb	r1, [r3, r2]

  /* Set the Time Base configuration */
  TIM_Base_SetConfig(htim->Instance, &htim->Init);
 800305e:	687b      	ldr	r3, [r7, #4]
 8003060:	681a      	ldr	r2, [r3, #0]
 8003062:	687b      	ldr	r3, [r7, #4]
 8003064:	3304      	adds	r3, #4
 8003066:	0019      	movs	r1, r3
 8003068:	0010      	movs	r0, r2
 800306a:	f000 fa49 	bl	8003500 <TIM_Base_SetConfig>

  /* Initialize the TIM state*/
  htim->State = HAL_TIM_STATE_READY;
 800306e:	687b      	ldr	r3, [r7, #4]
 8003070:	223d      	movs	r2, #61	; 0x3d
 8003072:	2101      	movs	r1, #1
 8003074:	5499      	strb	r1, [r3, r2]

  return HAL_OK;
 8003076:	2300      	movs	r3, #0
}
 8003078:	0018      	movs	r0, r3
 800307a:	46bd      	mov	sp, r7
 800307c:	b002      	add	sp, #8
 800307e:	bd80      	pop	{r7, pc}

08003080 <HAL_TIM_Base_Start_IT>:
  * @brief  Starts the TIM Base generation in interrupt mode.
  * @param  htim TIM Base handle
  * @retval HAL status
  */
HAL_StatusTypeDef HAL_TIM_Base_Start_IT(TIM_HandleTypeDef *htim)
{
 8003080:	b580      	push	{r7, lr}
 8003082:	b084      	sub	sp, #16
 8003084:	af00      	add	r7, sp, #0
 8003086:	6078      	str	r0, [r7, #4]

  /* Check the parameters */
  assert_param(IS_TIM_INSTANCE(htim->Instance));

  /* Enable the TIM Update interrupt */
  __HAL_TIM_ENABLE_IT(htim, TIM_IT_UPDATE);
 8003088:	687b      	ldr	r3, [r7, #4]
 800308a:	681b      	ldr	r3, [r3, #0]
 800308c:	68da      	ldr	r2, [r3, #12]
 800308e:	687b      	ldr	r3, [r7, #4]
 8003090:	681b      	ldr	r3, [r3, #0]
 8003092:	2101      	movs	r1, #1
 8003094:	430a      	orrs	r2, r1
 8003096:	60da      	str	r2, [r3, #12]

  /* Enable the Peripheral, except in trigger mode where enable is automatically done with trigger */
  tmpsmcr = htim->Instance->SMCR & TIM_SMCR_SMS;
 8003098:	687b      	ldr	r3, [r7, #4]
 800309a:	681b      	ldr	r3, [r3, #0]
 800309c:	689b      	ldr	r3, [r3, #8]
 800309e:	2207      	movs	r2, #7
 80030a0:	4013      	ands	r3, r2
 80030a2:	60fb      	str	r3, [r7, #12]
  if (!IS_TIM_SLAVEMODE_TRIGGER_ENABLED(tmpsmcr))
 80030a4:	68fb      	ldr	r3, [r7, #12]
 80030a6:	2b06      	cmp	r3, #6
 80030a8:	d007      	beq.n	80030ba <HAL_TIM_Base_Start_IT+0x3a>
  {
    __HAL_TIM_ENABLE(htim);
 80030aa:	687b      	ldr	r3, [r7, #4]
 80030ac:	681b      	ldr	r3, [r3, #0]
 80030ae:	681a      	ldr	r2, [r3, #0]
 80030b0:	687b      	ldr	r3, [r7, #4]
 80030b2:	681b      	ldr	r3, [r3, #0]
 80030b4:	2101      	movs	r1, #1
 80030b6:	430a      	orrs	r2, r1
 80030b8:	601a      	str	r2, [r3, #0]
  }

  /* Return function status */
  return HAL_OK;
 80030ba:	2300      	movs	r3, #0
}
 80030bc:	0018      	movs	r0, r3
 80030be:	46bd      	mov	sp, r7
 80030c0:	b004      	add	sp, #16
 80030c2:	bd80      	pop	{r7, pc}

080030c4 <HAL_TIM_Base_Stop_IT>:
  * @brief  Stops the TIM Base generation in interrupt mode.
  * @param  htim TIM Base handle
  * @retval HAL status
  */
HAL_StatusTypeDef HAL_TIM_Base_Stop_IT(TIM_HandleTypeDef *htim)
{
 80030c4:	b580      	push	{r7, lr}
 80030c6:	b082      	sub	sp, #8
 80030c8:	af00      	add	r7, sp, #0
 80030ca:	6078      	str	r0, [r7, #4]
  /* Check the parameters */
  assert_param(IS_TIM_INSTANCE(htim->Instance));
  /* Disable the TIM Update interrupt */
  __HAL_TIM_DISABLE_IT(htim, TIM_IT_UPDATE);
 80030cc:	687b      	ldr	r3, [r7, #4]
 80030ce:	681b      	ldr	r3, [r3, #0]
 80030d0:	68da      	ldr	r2, [r3, #12]
 80030d2:	687b      	ldr	r3, [r7, #4]
 80030d4:	681b      	ldr	r3, [r3, #0]
 80030d6:	2101      	movs	r1, #1
 80030d8:	438a      	bics	r2, r1
 80030da:	60da      	str	r2, [r3, #12]

  /* Disable the Peripheral */
  __HAL_TIM_DISABLE(htim);
 80030dc:	687b      	ldr	r3, [r7, #4]
 80030de:	681b      	ldr	r3, [r3, #0]
 80030e0:	6a1b      	ldr	r3, [r3, #32]
 80030e2:	4a0b      	ldr	r2, [pc, #44]	; (8003110 <HAL_TIM_Base_Stop_IT+0x4c>)
 80030e4:	4013      	ands	r3, r2
 80030e6:	d10d      	bne.n	8003104 <HAL_TIM_Base_Stop_IT+0x40>
 80030e8:	687b      	ldr	r3, [r7, #4]
 80030ea:	681b      	ldr	r3, [r3, #0]
 80030ec:	6a1b      	ldr	r3, [r3, #32]
 80030ee:	4a09      	ldr	r2, [pc, #36]	; (8003114 <HAL_TIM_Base_Stop_IT+0x50>)
 80030f0:	4013      	ands	r3, r2
 80030f2:	d107      	bne.n	8003104 <HAL_TIM_Base_Stop_IT+0x40>
 80030f4:	687b      	ldr	r3, [r7, #4]
 80030f6:	681b      	ldr	r3, [r3, #0]
 80030f8:	681a      	ldr	r2, [r3, #0]
 80030fa:	687b      	ldr	r3, [r7, #4]
 80030fc:	681b      	ldr	r3, [r3, #0]
 80030fe:	2101      	movs	r1, #1
 8003100:	438a      	bics	r2, r1
 8003102:	601a      	str	r2, [r3, #0]

  /* Return function status */
  return HAL_OK;
 8003104:	2300      	movs	r3, #0
}
 8003106:	0018      	movs	r0, r3
 8003108:	46bd      	mov	sp, r7
 800310a:	b002      	add	sp, #8
 800310c:	bd80      	pop	{r7, pc}
 800310e:	46c0      	nop			; (mov r8, r8)
 8003110:	00001111 	.word	0x00001111
 8003114:	00000444 	.word	0x00000444

08003118 <HAL_TIM_IRQHandler>:
  * @brief  This function handles TIM interrupts requests.
  * @param  htim TIM  handle
  * @retval None
  */
void HAL_TIM_IRQHandler(TIM_HandleTypeDef *htim)
{
 8003118:	b580      	push	{r7, lr}
 800311a:	b082      	sub	sp, #8
 800311c:	af00      	add	r7, sp, #0
 800311e:	6078      	str	r0, [r7, #4]
  /* Capture compare 1 event */
  if (__HAL_TIM_GET_FLAG(htim, TIM_FLAG_CC1) != RESET)
 8003120:	687b      	ldr	r3, [r7, #4]
 8003122:	681b      	ldr	r3, [r3, #0]
 8003124:	691b      	ldr	r3, [r3, #16]
 8003126:	2202      	movs	r2, #2
 8003128:	4013      	ands	r3, r2
 800312a:	2b02      	cmp	r3, #2
 800312c:	d124      	bne.n	8003178 <HAL_TIM_IRQHandler+0x60>
  {
    if (__HAL_TIM_GET_IT_SOURCE(htim, TIM_IT_CC1) != RESET)
 800312e:	687b      	ldr	r3, [r7, #4]
 8003130:	681b      	ldr	r3, [r3, #0]
 8003132:	68db      	ldr	r3, [r3, #12]
 8003134:	2202      	movs	r2, #2
 8003136:	4013      	ands	r3, r2
 8003138:	2b02      	cmp	r3, #2
 800313a:	d11d      	bne.n	8003178 <HAL_TIM_IRQHandler+0x60>
    {
      {
        __HAL_TIM_CLEAR_IT(htim, TIM_IT_CC1);
 800313c:	687b      	ldr	r3, [r7, #4]
 800313e:	681b      	ldr	r3, [r3, #0]
 8003140:	2203      	movs	r2, #3
 8003142:	4252      	negs	r2, r2
 8003144:	611a      	str	r2, [r3, #16]
        htim->Channel = HAL_TIM_ACTIVE_CHANNEL_1;
 8003146:	687b      	ldr	r3, [r7, #4]
 8003148:	2201      	movs	r2, #1
 800314a:	771a      	strb	r2, [r3, #28]

        /* Input capture event */
        if ((htim->Instance->CCMR1 & TIM_CCMR1_CC1S) != 0x00U)
 800314c:	687b      	ldr	r3, [r7, #4]
 800314e:	681b      	ldr	r3, [r3, #0]
 8003150:	699b      	ldr	r3, [r3, #24]
 8003152:	2203      	movs	r2, #3
 8003154:	4013      	ands	r3, r2
 8003156:	d004      	beq.n	8003162 <HAL_TIM_IRQHandler+0x4a>
        {
#if (USE_HAL_TIM_REGISTER_CALLBACKS == 1)
          htim->IC_CaptureCallback(htim);
#else
          HAL_TIM_IC_CaptureCallback(htim);
 8003158:	687b      	ldr	r3, [r7, #4]
 800315a:	0018      	movs	r0, r3
 800315c:	f000 f9b8 	bl	80034d0 <HAL_TIM_IC_CaptureCallback>
 8003160:	e007      	b.n	8003172 <HAL_TIM_IRQHandler+0x5a>
        {
#if (USE_HAL_TIM_REGISTER_CALLBACKS == 1)
          htim->OC_DelayElapsedCallback(htim);
          htim->PWM_PulseFinishedCallback(htim);
#else
          HAL_TIM_OC_DelayElapsedCallback(htim);
 8003162:	687b      	ldr	r3, [r7, #4]
 8003164:	0018      	movs	r0, r3
 8003166:	f000 f9ab 	bl	80034c0 <HAL_TIM_OC_DelayElapsedCallback>
          HAL_TIM_PWM_PulseFinishedCallback(htim);
 800316a:	687b      	ldr	r3, [r7, #4]
 800316c:	0018      	movs	r0, r3
 800316e:	f000 f9b7 	bl	80034e0 <HAL_TIM_PWM_PulseFinishedCallback>
#endif /* USE_HAL_TIM_REGISTER_CALLBACKS */
        }
        htim->Channel = HAL_TIM_ACTIVE_CHANNEL_CLEARED;
 8003172:	687b      	ldr	r3, [r7, #4]
 8003174:	2200      	movs	r2, #0
 8003176:	771a      	strb	r2, [r3, #28]
      }
    }
  }
  /* Capture compare 2 event */
  if (__HAL_TIM_GET_FLAG(htim, TIM_FLAG_CC2) != RESET)
 8003178:	687b      	ldr	r3, [r7, #4]
 800317a:	681b      	ldr	r3, [r3, #0]
 800317c:	691b      	ldr	r3, [r3, #16]
 800317e:	2204      	movs	r2, #4
 8003180:	4013      	ands	r3, r2
 8003182:	2b04      	cmp	r3, #4
 8003184:	d125      	bne.n	80031d2 <HAL_TIM_IRQHandler+0xba>
  {
    if (__HAL_TIM_GET_IT_SOURCE(htim, TIM_IT_CC2) != RESET)
 8003186:	687b      	ldr	r3, [r7, #4]
 8003188:	681b      	ldr	r3, [r3, #0]
 800318a:	68db      	ldr	r3, [r3, #12]
 800318c:	2204      	movs	r2, #4
 800318e:	4013      	ands	r3, r2
 8003190:	2b04      	cmp	r3, #4
 8003192:	d11e      	bne.n	80031d2 <HAL_TIM_IRQHandler+0xba>
    {
      __HAL_TIM_CLEAR_IT(htim, TIM_IT_CC2);
 8003194:	687b      	ldr	r3, [r7, #4]
 8003196:	681b      	ldr	r3, [r3, #0]
 8003198:	2205      	movs	r2, #5
 800319a:	4252      	negs	r2, r2
 800319c:	611a      	str	r2, [r3, #16]
      htim->Channel = HAL_TIM_ACTIVE_CHANNEL_2;
 800319e:	687b      	ldr	r3, [r7, #4]
 80031a0:	2202      	movs	r2, #2
 80031a2:	771a      	strb	r2, [r3, #28]
      /* Input capture event */
      if ((htim->Instance->CCMR1 & TIM_CCMR1_CC2S) != 0x00U)
 80031a4:	687b      	ldr	r3, [r7, #4]
 80031a6:	681b      	ldr	r3, [r3, #0]
 80031a8:	699a      	ldr	r2, [r3, #24]
 80031aa:	23c0      	movs	r3, #192	; 0xc0
 80031ac:	009b      	lsls	r3, r3, #2
 80031ae:	4013      	ands	r3, r2
 80031b0:	d004      	beq.n	80031bc <HAL_TIM_IRQHandler+0xa4>
      {
#if (USE_HAL_TIM_REGISTER_CALLBACKS == 1)
        htim->IC_CaptureCallback(htim);
#else
        HAL_TIM_IC_CaptureCallback(htim);
 80031b2:	687b      	ldr	r3, [r7, #4]
 80031b4:	0018      	movs	r0, r3
 80031b6:	f000 f98b 	bl	80034d0 <HAL_TIM_IC_CaptureCallback>
 80031ba:	e007      	b.n	80031cc <HAL_TIM_IRQHandler+0xb4>
      {
#if (USE_HAL_TIM_REGISTER_CALLBACKS == 1)
        htim->OC_DelayElapsedCallback(htim);
        htim->PWM_PulseFinishedCallback(htim);
#else
        HAL_TIM_OC_DelayElapsedCallback(htim);
 80031bc:	687b      	ldr	r3, [r7, #4]
 80031be:	0018      	movs	r0, r3
 80031c0:	f000 f97e 	bl	80034c0 <HAL_TIM_OC_DelayElapsedCallback>
        HAL_TIM_PWM_PulseFinishedCallback(htim);
 80031c4:	687b      	ldr	r3, [r7, #4]
 80031c6:	0018      	movs	r0, r3
 80031c8:	f000 f98a 	bl	80034e0 <HAL_TIM_PWM_PulseFinishedCallback>
#endif /* USE_HAL_TIM_REGISTER_CALLBACKS */
      }
      htim->Channel = HAL_TIM_ACTIVE_CHANNEL_CLEARED;
 80031cc:	687b      	ldr	r3, [r7, #4]
 80031ce:	2200      	movs	r2, #0
 80031d0:	771a      	strb	r2, [r3, #28]
    }
  }
  /* Capture compare 3 event */
  if (__HAL_TIM_GET_FLAG(htim, TIM_FLAG_CC3) != RESET)
 80031d2:	687b      	ldr	r3, [r7, #4]
 80031d4:	681b      	ldr	r3, [r3, #0]
 80031d6:	691b      	ldr	r3, [r3, #16]
 80031d8:	2208      	movs	r2, #8
 80031da:	4013      	ands	r3, r2
 80031dc:	2b08      	cmp	r3, #8
 80031de:	d124      	bne.n	800322a <HAL_TIM_IRQHandler+0x112>
  {
    if (__HAL_TIM_GET_IT_SOURCE(htim, TIM_IT_CC3) != RESET)
 80031e0:	687b      	ldr	r3, [r7, #4]
 80031e2:	681b      	ldr	r3, [r3, #0]
 80031e4:	68db      	ldr	r3, [r3, #12]
 80031e6:	2208      	movs	r2, #8
 80031e8:	4013      	ands	r3, r2
 80031ea:	2b08      	cmp	r3, #8
 80031ec:	d11d      	bne.n	800322a <HAL_TIM_IRQHandler+0x112>
    {
      __HAL_TIM_CLEAR_IT(htim, TIM_IT_CC3);
 80031ee:	687b      	ldr	r3, [r7, #4]
 80031f0:	681b      	ldr	r3, [r3, #0]
 80031f2:	2209      	movs	r2, #9
 80031f4:	4252      	negs	r2, r2
 80031f6:	611a      	str	r2, [r3, #16]
      htim->Channel = HAL_TIM_ACTIVE_CHANNEL_3;
 80031f8:	687b      	ldr	r3, [r7, #4]
 80031fa:	2204      	movs	r2, #4
 80031fc:	771a      	strb	r2, [r3, #28]
      /* Input capture event */
      if ((htim->Instance->CCMR2 & TIM_CCMR2_CC3S) != 0x00U)
 80031fe:	687b      	ldr	r3, [r7, #4]
 8003200:	681b      	ldr	r3, [r3, #0]
 8003202:	69db      	ldr	r3, [r3, #28]
 8003204:	2203      	movs	r2, #3
 8003206:	4013      	ands	r3, r2
 8003208:	d004      	beq.n	8003214 <HAL_TIM_IRQHandler+0xfc>
      {
#if (USE_HAL_TIM_REGISTER_CALLBACKS == 1)
        htim->IC_CaptureCallback(htim);
#else
        HAL_TIM_IC_CaptureCallback(htim);
 800320a:	687b      	ldr	r3, [r7, #4]
 800320c:	0018      	movs	r0, r3
 800320e:	f000 f95f 	bl	80034d0 <HAL_TIM_IC_CaptureCallback>
 8003212:	e007      	b.n	8003224 <HAL_TIM_IRQHandler+0x10c>
      {
#if (USE_HAL_TIM_REGISTER_CALLBACKS == 1)
        htim->OC_DelayElapsedCallback(htim);
        htim->PWM_PulseFinishedCallback(htim);
#else
        HAL_TIM_OC_DelayElapsedCallback(htim);
 8003214:	687b      	ldr	r3, [r7, #4]
 8003216:	0018      	movs	r0, r3
 8003218:	f000 f952 	bl	80034c0 <HAL_TIM_OC_DelayElapsedCallback>
        HAL_TIM_PWM_PulseFinishedCallback(htim);
 800321c:	687b      	ldr	r3, [r7, #4]
 800321e:	0018      	movs	r0, r3
 8003220:	f000 f95e 	bl	80034e0 <HAL_TIM_PWM_PulseFinishedCallback>
#endif /* USE_HAL_TIM_REGISTER_CALLBACKS */
      }
      htim->Channel = HAL_TIM_ACTIVE_CHANNEL_CLEARED;
 8003224:	687b      	ldr	r3, [r7, #4]
 8003226:	2200      	movs	r2, #0
 8003228:	771a      	strb	r2, [r3, #28]
    }
  }
  /* Capture compare 4 event */
  if (__HAL_TIM_GET_FLAG(htim, TIM_FLAG_CC4) != RESET)
 800322a:	687b      	ldr	r3, [r7, #4]
 800322c:	681b      	ldr	r3, [r3, #0]
 800322e:	691b      	ldr	r3, [r3, #16]
 8003230:	2210      	movs	r2, #16
 8003232:	4013      	ands	r3, r2
 8003234:	2b10      	cmp	r3, #16
 8003236:	d125      	bne.n	8003284 <HAL_TIM_IRQHandler+0x16c>
  {
    if (__HAL_TIM_GET_IT_SOURCE(htim, TIM_IT_CC4) != RESET)
 8003238:	687b      	ldr	r3, [r7, #4]
 800323a:	681b      	ldr	r3, [r3, #0]
 800323c:	68db      	ldr	r3, [r3, #12]
 800323e:	2210      	movs	r2, #16
 8003240:	4013      	ands	r3, r2
 8003242:	2b10      	cmp	r3, #16
 8003244:	d11e      	bne.n	8003284 <HAL_TIM_IRQHandler+0x16c>
    {
      __HAL_TIM_CLEAR_IT(htim, TIM_IT_CC4);
 8003246:	687b      	ldr	r3, [r7, #4]
 8003248:	681b      	ldr	r3, [r3, #0]
 800324a:	2211      	movs	r2, #17
 800324c:	4252      	negs	r2, r2
 800324e:	611a      	str	r2, [r3, #16]
      htim->Channel = HAL_TIM_ACTIVE_CHANNEL_4;
 8003250:	687b      	ldr	r3, [r7, #4]
 8003252:	2208      	movs	r2, #8
 8003254:	771a      	strb	r2, [r3, #28]
      /* Input capture event */
      if ((htim->Instance->CCMR2 & TIM_CCMR2_CC4S) != 0x00U)
 8003256:	687b      	ldr	r3, [r7, #4]
 8003258:	681b      	ldr	r3, [r3, #0]
 800325a:	69da      	ldr	r2, [r3, #28]
 800325c:	23c0      	movs	r3, #192	; 0xc0
 800325e:	009b      	lsls	r3, r3, #2
 8003260:	4013      	ands	r3, r2
 8003262:	d004      	beq.n	800326e <HAL_TIM_IRQHandler+0x156>
      {
#if (USE_HAL_TIM_REGISTER_CALLBACKS == 1)
        htim->IC_CaptureCallback(htim);
#else
        HAL_TIM_IC_CaptureCallback(htim);
 8003264:	687b      	ldr	r3, [r7, #4]
 8003266:	0018      	movs	r0, r3
 8003268:	f000 f932 	bl	80034d0 <HAL_TIM_IC_CaptureCallback>
 800326c:	e007      	b.n	800327e <HAL_TIM_IRQHandler+0x166>
      {
#if (USE_HAL_TIM_REGISTER_CALLBACKS == 1)
        htim->OC_DelayElapsedCallback(htim);
        htim->PWM_PulseFinishedCallback(htim);
#else
        HAL_TIM_OC_DelayElapsedCallback(htim);
 800326e:	687b      	ldr	r3, [r7, #4]
 8003270:	0018      	movs	r0, r3
 8003272:	f000 f925 	bl	80034c0 <HAL_TIM_OC_DelayElapsedCallback>
        HAL_TIM_PWM_PulseFinishedCallback(htim);
 8003276:	687b      	ldr	r3, [r7, #4]
 8003278:	0018      	movs	r0, r3
 800327a:	f000 f931 	bl	80034e0 <HAL_TIM_PWM_PulseFinishedCallback>
#endif /* USE_HAL_TIM_REGISTER_CALLBACKS */
      }
      htim->Channel = HAL_TIM_ACTIVE_CHANNEL_CLEARED;
 800327e:	687b      	ldr	r3, [r7, #4]
 8003280:	2200      	movs	r2, #0
 8003282:	771a      	strb	r2, [r3, #28]
    }
  }
  /* TIM Update event */
  if (__HAL_TIM_GET_FLAG(htim, TIM_FLAG_UPDATE) != RESET)
 8003284:	687b      	ldr	r3, [r7, #4]
 8003286:	681b      	ldr	r3, [r3, #0]
 8003288:	691b      	ldr	r3, [r3, #16]
 800328a:	2201      	movs	r2, #1
 800328c:	4013      	ands	r3, r2
 800328e:	2b01      	cmp	r3, #1
 8003290:	d10f      	bne.n	80032b2 <HAL_TIM_IRQHandler+0x19a>
  {
    if (__HAL_TIM_GET_IT_SOURCE(htim, TIM_IT_UPDATE) != RESET)
 8003292:	687b      	ldr	r3, [r7, #4]
 8003294:	681b      	ldr	r3, [r3, #0]
 8003296:	68db      	ldr	r3, [r3, #12]
 8003298:	2201      	movs	r2, #1
 800329a:	4013      	ands	r3, r2
 800329c:	2b01      	cmp	r3, #1
 800329e:	d108      	bne.n	80032b2 <HAL_TIM_IRQHandler+0x19a>
    {
      __HAL_TIM_CLEAR_IT(htim, TIM_IT_UPDATE);
 80032a0:	687b      	ldr	r3, [r7, #4]
 80032a2:	681b      	ldr	r3, [r3, #0]
 80032a4:	2202      	movs	r2, #2
 80032a6:	4252      	negs	r2, r2
 80032a8:	611a      	str	r2, [r3, #16]
#if (USE_HAL_TIM_REGISTER_CALLBACKS == 1)
      htim->PeriodElapsedCallback(htim);
#else
      HAL_TIM_PeriodElapsedCallback(htim);
 80032aa:	687b      	ldr	r3, [r7, #4]
 80032ac:	0018      	movs	r0, r3
 80032ae:	f7fd fadb 	bl	8000868 <HAL_TIM_PeriodElapsedCallback>
#endif /* USE_HAL_TIM_REGISTER_CALLBACKS */
    }
  }
  /* TIM Break input event */
  if (__HAL_TIM_GET_FLAG(htim, TIM_FLAG_BREAK) != RESET)
 80032b2:	687b      	ldr	r3, [r7, #4]
 80032b4:	681b      	ldr	r3, [r3, #0]
 80032b6:	691b      	ldr	r3, [r3, #16]
 80032b8:	2280      	movs	r2, #128	; 0x80
 80032ba:	4013      	ands	r3, r2
 80032bc:	2b80      	cmp	r3, #128	; 0x80
 80032be:	d10f      	bne.n	80032e0 <HAL_TIM_IRQHandler+0x1c8>
  {
    if (__HAL_TIM_GET_IT_SOURCE(htim, TIM_IT_BREAK) != RESET)
 80032c0:	687b      	ldr	r3, [r7, #4]
 80032c2:	681b      	ldr	r3, [r3, #0]
 80032c4:	68db      	ldr	r3, [r3, #12]
 80032c6:	2280      	movs	r2, #128	; 0x80
 80032c8:	4013      	ands	r3, r2
 80032ca:	2b80      	cmp	r3, #128	; 0x80
 80032cc:	d108      	bne.n	80032e0 <HAL_TIM_IRQHandler+0x1c8>
    {
      __HAL_TIM_CLEAR_IT(htim, TIM_IT_BREAK);
 80032ce:	687b      	ldr	r3, [r7, #4]
 80032d0:	681b      	ldr	r3, [r3, #0]
 80032d2:	2281      	movs	r2, #129	; 0x81
 80032d4:	4252      	negs	r2, r2
 80032d6:	611a      	str	r2, [r3, #16]
#if (USE_HAL_TIM_REGISTER_CALLBACKS == 1)
      htim->BreakCallback(htim);
#else
      HAL_TIMEx_BreakCallback(htim);
 80032d8:	687b      	ldr	r3, [r7, #4]
 80032da:	0018      	movs	r0, r3
 80032dc:	f000 fa90 	bl	8003800 <HAL_TIMEx_BreakCallback>
#endif /* USE_HAL_TIM_REGISTER_CALLBACKS */
    }
  }
  /* TIM Trigger detection event */
  if (__HAL_TIM_GET_FLAG(htim, TIM_FLAG_TRIGGER) != RESET)
 80032e0:	687b      	ldr	r3, [r7, #4]
 80032e2:	681b      	ldr	r3, [r3, #0]
 80032e4:	691b      	ldr	r3, [r3, #16]
 80032e6:	2240      	movs	r2, #64	; 0x40
 80032e8:	4013      	ands	r3, r2
 80032ea:	2b40      	cmp	r3, #64	; 0x40
 80032ec:	d10f      	bne.n	800330e <HAL_TIM_IRQHandler+0x1f6>
  {
    if (__HAL_TIM_GET_IT_SOURCE(htim, TIM_IT_TRIGGER) != RESET)
 80032ee:	687b      	ldr	r3, [r7, #4]
 80032f0:	681b      	ldr	r3, [r3, #0]
 80032f2:	68db      	ldr	r3, [r3, #12]
 80032f4:	2240      	movs	r2, #64	; 0x40
 80032f6:	4013      	ands	r3, r2
 80032f8:	2b40      	cmp	r3, #64	; 0x40
 80032fa:	d108      	bne.n	800330e <HAL_TIM_IRQHandler+0x1f6>
    {
      __HAL_TIM_CLEAR_IT(htim, TIM_IT_TRIGGER);
 80032fc:	687b      	ldr	r3, [r7, #4]
 80032fe:	681b      	ldr	r3, [r3, #0]
 8003300:	2241      	movs	r2, #65	; 0x41
 8003302:	4252      	negs	r2, r2
 8003304:	611a      	str	r2, [r3, #16]
#if (USE_HAL_TIM_REGISTER_CALLBACKS == 1)
      htim->TriggerCallback(htim);
#else
      HAL_TIM_TriggerCallback(htim);
 8003306:	687b      	ldr	r3, [r7, #4]
 8003308:	0018      	movs	r0, r3
 800330a:	f000 f8f1 	bl	80034f0 <HAL_TIM_TriggerCallback>
#endif /* USE_HAL_TIM_REGISTER_CALLBACKS */
    }
  }
  /* TIM commutation event */
  if (__HAL_TIM_GET_FLAG(htim, TIM_FLAG_COM) != RESET)
 800330e:	687b      	ldr	r3, [r7, #4]
 8003310:	681b      	ldr	r3, [r3, #0]
 8003312:	691b      	ldr	r3, [r3, #16]
 8003314:	2220      	movs	r2, #32
 8003316:	4013      	ands	r3, r2
 8003318:	2b20      	cmp	r3, #32
 800331a:	d10f      	bne.n	800333c <HAL_TIM_IRQHandler+0x224>
  {
    if (__HAL_TIM_GET_IT_SOURCE(htim, TIM_IT_COM) != RESET)
 800331c:	687b      	ldr	r3, [r7, #4]
 800331e:	681b      	ldr	r3, [r3, #0]
 8003320:	68db      	ldr	r3, [r3, #12]
 8003322:	2220      	movs	r2, #32
 8003324:	4013      	ands	r3, r2
 8003326:	2b20      	cmp	r3, #32
 8003328:	d108      	bne.n	800333c <HAL_TIM_IRQHandler+0x224>
    {
      __HAL_TIM_CLEAR_IT(htim, TIM_FLAG_COM);
 800332a:	687b      	ldr	r3, [r7, #4]
 800332c:	681b      	ldr	r3, [r3, #0]
 800332e:	2221      	movs	r2, #33	; 0x21
 8003330:	4252      	negs	r2, r2
 8003332:	611a      	str	r2, [r3, #16]
#if (USE_HAL_TIM_REGISTER_CALLBACKS == 1)
      htim->CommutationCallback(htim);
#else
      HAL_TIMEx_CommutCallback(htim);
 8003334:	687b      	ldr	r3, [r7, #4]
 8003336:	0018      	movs	r0, r3
 8003338:	f000 fa5a 	bl	80037f0 <HAL_TIMEx_CommutCallback>
#endif /* USE_HAL_TIM_REGISTER_CALLBACKS */
    }
  }
}
 800333c:	46c0      	nop			; (mov r8, r8)
 800333e:	46bd      	mov	sp, r7
 8003340:	b002      	add	sp, #8
 8003342:	bd80      	pop	{r7, pc}

08003344 <HAL_TIM_ConfigClockSource>:
  * @param  sClockSourceConfig pointer to a TIM_ClockConfigTypeDef structure that
  *         contains the clock source information for the TIM peripheral.
  * @retval HAL status
  */
HAL_StatusTypeDef HAL_TIM_ConfigClockSource(TIM_HandleTypeDef *htim, TIM_ClockConfigTypeDef *sClockSourceConfig)
{
 8003344:	b580      	push	{r7, lr}
 8003346:	b084      	sub	sp, #16
 8003348:	af00      	add	r7, sp, #0
 800334a:	6078      	str	r0, [r7, #4]
 800334c:	6039      	str	r1, [r7, #0]
  uint32_t tmpsmcr;

  /* Process Locked */
  __HAL_LOCK(htim);
 800334e:	687b      	ldr	r3, [r7, #4]
 8003350:	223c      	movs	r2, #60	; 0x3c
 8003352:	5c9b      	ldrb	r3, [r3, r2]
 8003354:	2b01      	cmp	r3, #1
 8003356:	d101      	bne.n	800335c <HAL_TIM_ConfigClockSource+0x18>
 8003358:	2302      	movs	r3, #2
 800335a:	e0ab      	b.n	80034b4 <HAL_TIM_ConfigClockSource+0x170>
 800335c:	687b      	ldr	r3, [r7, #4]
 800335e:	223c      	movs	r2, #60	; 0x3c
 8003360:	2101      	movs	r1, #1
 8003362:	5499      	strb	r1, [r3, r2]

  htim->State = HAL_TIM_STATE_BUSY;
 8003364:	687b      	ldr	r3, [r7, #4]
 8003366:	223d      	movs	r2, #61	; 0x3d
 8003368:	2102      	movs	r1, #2
 800336a:	5499      	strb	r1, [r3, r2]

  /* Check the parameters */
  assert_param(IS_TIM_CLOCKSOURCE(sClockSourceConfig->ClockSource));

  /* Reset the SMS, TS, ECE, ETPS and ETRF bits */
  tmpsmcr = htim->Instance->SMCR;
 800336c:	687b      	ldr	r3, [r7, #4]
 800336e:	681b      	ldr	r3, [r3, #0]
 8003370:	689b      	ldr	r3, [r3, #8]
 8003372:	60fb      	str	r3, [r7, #12]
  tmpsmcr &= ~(TIM_SMCR_SMS | TIM_SMCR_TS);
 8003374:	68fb      	ldr	r3, [r7, #12]
 8003376:	2277      	movs	r2, #119	; 0x77
 8003378:	4393      	bics	r3, r2
 800337a:	60fb      	str	r3, [r7, #12]
  tmpsmcr &= ~(TIM_SMCR_ETF | TIM_SMCR_ETPS | TIM_SMCR_ECE | TIM_SMCR_ETP);
 800337c:	68fb      	ldr	r3, [r7, #12]
 800337e:	4a4f      	ldr	r2, [pc, #316]	; (80034bc <HAL_TIM_ConfigClockSource+0x178>)
 8003380:	4013      	ands	r3, r2
 8003382:	60fb      	str	r3, [r7, #12]
  htim->Instance->SMCR = tmpsmcr;
 8003384:	687b      	ldr	r3, [r7, #4]
 8003386:	681b      	ldr	r3, [r3, #0]
 8003388:	68fa      	ldr	r2, [r7, #12]
 800338a:	609a      	str	r2, [r3, #8]

  switch (sClockSourceConfig->ClockSource)
 800338c:	683b      	ldr	r3, [r7, #0]
 800338e:	681b      	ldr	r3, [r3, #0]
 8003390:	2b40      	cmp	r3, #64	; 0x40
 8003392:	d100      	bne.n	8003396 <HAL_TIM_ConfigClockSource+0x52>
 8003394:	e06b      	b.n	800346e <HAL_TIM_ConfigClockSource+0x12a>
 8003396:	d80e      	bhi.n	80033b6 <HAL_TIM_ConfigClockSource+0x72>
 8003398:	2b10      	cmp	r3, #16
 800339a:	d100      	bne.n	800339e <HAL_TIM_ConfigClockSource+0x5a>
 800339c:	e077      	b.n	800348e <HAL_TIM_ConfigClockSource+0x14a>
 800339e:	d803      	bhi.n	80033a8 <HAL_TIM_ConfigClockSource+0x64>
 80033a0:	2b00      	cmp	r3, #0
 80033a2:	d100      	bne.n	80033a6 <HAL_TIM_ConfigClockSource+0x62>
 80033a4:	e073      	b.n	800348e <HAL_TIM_ConfigClockSource+0x14a>
      TIM_ITRx_SetConfig(htim->Instance, sClockSourceConfig->ClockSource);
      break;
    }

    default:
      break;
 80033a6:	e07c      	b.n	80034a2 <HAL_TIM_ConfigClockSource+0x15e>
  switch (sClockSourceConfig->ClockSource)
 80033a8:	2b20      	cmp	r3, #32
 80033aa:	d100      	bne.n	80033ae <HAL_TIM_ConfigClockSource+0x6a>
 80033ac:	e06f      	b.n	800348e <HAL_TIM_ConfigClockSource+0x14a>
 80033ae:	2b30      	cmp	r3, #48	; 0x30
 80033b0:	d100      	bne.n	80033b4 <HAL_TIM_ConfigClockSource+0x70>
 80033b2:	e06c      	b.n	800348e <HAL_TIM_ConfigClockSource+0x14a>
      break;
 80033b4:	e075      	b.n	80034a2 <HAL_TIM_ConfigClockSource+0x15e>
  switch (sClockSourceConfig->ClockSource)
 80033b6:	2b70      	cmp	r3, #112	; 0x70
 80033b8:	d00e      	beq.n	80033d8 <HAL_TIM_ConfigClockSource+0x94>
 80033ba:	d804      	bhi.n	80033c6 <HAL_TIM_ConfigClockSource+0x82>
 80033bc:	2b50      	cmp	r3, #80	; 0x50
 80033be:	d036      	beq.n	800342e <HAL_TIM_ConfigClockSource+0xea>
 80033c0:	2b60      	cmp	r3, #96	; 0x60
 80033c2:	d044      	beq.n	800344e <HAL_TIM_ConfigClockSource+0x10a>
      break;
 80033c4:	e06d      	b.n	80034a2 <HAL_TIM_ConfigClockSource+0x15e>
  switch (sClockSourceConfig->ClockSource)
 80033c6:	2280      	movs	r2, #128	; 0x80
 80033c8:	0152      	lsls	r2, r2, #5
 80033ca:	4293      	cmp	r3, r2
 80033cc:	d068      	beq.n	80034a0 <HAL_TIM_ConfigClockSource+0x15c>
 80033ce:	2280      	movs	r2, #128	; 0x80
 80033d0:	0192      	lsls	r2, r2, #6
 80033d2:	4293      	cmp	r3, r2
 80033d4:	d017      	beq.n	8003406 <HAL_TIM_ConfigClockSource+0xc2>
      break;
 80033d6:	e064      	b.n	80034a2 <HAL_TIM_ConfigClockSource+0x15e>
      TIM_ETR_SetConfig(htim->Instance,
 80033d8:	687b      	ldr	r3, [r7, #4]
 80033da:	6818      	ldr	r0, [r3, #0]
 80033dc:	683b      	ldr	r3, [r7, #0]
 80033de:	6899      	ldr	r1, [r3, #8]
 80033e0:	683b      	ldr	r3, [r7, #0]
 80033e2:	685a      	ldr	r2, [r3, #4]
 80033e4:	683b      	ldr	r3, [r7, #0]
 80033e6:	68db      	ldr	r3, [r3, #12]
 80033e8:	f000 f984 	bl	80036f4 <TIM_ETR_SetConfig>
      tmpsmcr = htim->Instance->SMCR;
 80033ec:	687b      	ldr	r3, [r7, #4]
 80033ee:	681b      	ldr	r3, [r3, #0]
 80033f0:	689b      	ldr	r3, [r3, #8]
 80033f2:	60fb      	str	r3, [r7, #12]
      tmpsmcr |= (TIM_SLAVEMODE_EXTERNAL1 | TIM_CLOCKSOURCE_ETRMODE1);
 80033f4:	68fb      	ldr	r3, [r7, #12]
 80033f6:	2277      	movs	r2, #119	; 0x77
 80033f8:	4313      	orrs	r3, r2
 80033fa:	60fb      	str	r3, [r7, #12]
      htim->Instance->SMCR = tmpsmcr;
 80033fc:	687b      	ldr	r3, [r7, #4]
 80033fe:	681b      	ldr	r3, [r3, #0]
 8003400:	68fa      	ldr	r2, [r7, #12]
 8003402:	609a      	str	r2, [r3, #8]
      break;
 8003404:	e04d      	b.n	80034a2 <HAL_TIM_ConfigClockSource+0x15e>
      TIM_ETR_SetConfig(htim->Instance,
 8003406:	687b      	ldr	r3, [r7, #4]
 8003408:	6818      	ldr	r0, [r3, #0]
 800340a:	683b      	ldr	r3, [r7, #0]
 800340c:	6899      	ldr	r1, [r3, #8]
 800340e:	683b      	ldr	r3, [r7, #0]
 8003410:	685a      	ldr	r2, [r3, #4]
 8003412:	683b      	ldr	r3, [r7, #0]
 8003414:	68db      	ldr	r3, [r3, #12]
 8003416:	f000 f96d 	bl	80036f4 <TIM_ETR_SetConfig>
      htim->Instance->SMCR |= TIM_SMCR_ECE;
 800341a:	687b      	ldr	r3, [r7, #4]
 800341c:	681b      	ldr	r3, [r3, #0]
 800341e:	689a      	ldr	r2, [r3, #8]
 8003420:	687b      	ldr	r3, [r7, #4]
 8003422:	681b      	ldr	r3, [r3, #0]
 8003424:	2180      	movs	r1, #128	; 0x80
 8003426:	01c9      	lsls	r1, r1, #7
 8003428:	430a      	orrs	r2, r1
 800342a:	609a      	str	r2, [r3, #8]
      break;
 800342c:	e039      	b.n	80034a2 <HAL_TIM_ConfigClockSource+0x15e>
      TIM_TI1_ConfigInputStage(htim->Instance,
 800342e:	687b      	ldr	r3, [r7, #4]
 8003430:	6818      	ldr	r0, [r3, #0]
 8003432:	683b      	ldr	r3, [r7, #0]
 8003434:	6859      	ldr	r1, [r3, #4]
 8003436:	683b      	ldr	r3, [r7, #0]
 8003438:	68db      	ldr	r3, [r3, #12]
 800343a:	001a      	movs	r2, r3
 800343c:	f000 f8e0 	bl	8003600 <TIM_TI1_ConfigInputStage>
      TIM_ITRx_SetConfig(htim->Instance, TIM_CLOCKSOURCE_TI1);
 8003440:	687b      	ldr	r3, [r7, #4]
 8003442:	681b      	ldr	r3, [r3, #0]
 8003444:	2150      	movs	r1, #80	; 0x50
 8003446:	0018      	movs	r0, r3
 8003448:	f000 f93a 	bl	80036c0 <TIM_ITRx_SetConfig>
      break;
 800344c:	e029      	b.n	80034a2 <HAL_TIM_ConfigClockSource+0x15e>
      TIM_TI2_ConfigInputStage(htim->Instance,
 800344e:	687b      	ldr	r3, [r7, #4]
 8003450:	6818      	ldr	r0, [r3, #0]
 8003452:	683b      	ldr	r3, [r7, #0]
 8003454:	6859      	ldr	r1, [r3, #4]
 8003456:	683b      	ldr	r3, [r7, #0]
 8003458:	68db      	ldr	r3, [r3, #12]
 800345a:	001a      	movs	r2, r3
 800345c:	f000 f8fe 	bl	800365c <TIM_TI2_ConfigInputStage>
      TIM_ITRx_SetConfig(htim->Instance, TIM_CLOCKSOURCE_TI2);
 8003460:	687b      	ldr	r3, [r7, #4]
 8003462:	681b      	ldr	r3, [r3, #0]
 8003464:	2160      	movs	r1, #96	; 0x60
 8003466:	0018      	movs	r0, r3
 8003468:	f000 f92a 	bl	80036c0 <TIM_ITRx_SetConfig>
      break;
 800346c:	e019      	b.n	80034a2 <HAL_TIM_ConfigClockSource+0x15e>
      TIM_TI1_ConfigInputStage(htim->Instance,
 800346e:	687b      	ldr	r3, [r7, #4]
 8003470:	6818      	ldr	r0, [r3, #0]
 8003472:	683b      	ldr	r3, [r7, #0]
 8003474:	6859      	ldr	r1, [r3, #4]
 8003476:	683b      	ldr	r3, [r7, #0]
 8003478:	68db      	ldr	r3, [r3, #12]
 800347a:	001a      	movs	r2, r3
 800347c:	f000 f8c0 	bl	8003600 <TIM_TI1_ConfigInputStage>
      TIM_ITRx_SetConfig(htim->Instance, TIM_CLOCKSOURCE_TI1ED);
 8003480:	687b      	ldr	r3, [r7, #4]
 8003482:	681b      	ldr	r3, [r3, #0]
 8003484:	2140      	movs	r1, #64	; 0x40
 8003486:	0018      	movs	r0, r3
 8003488:	f000 f91a 	bl	80036c0 <TIM_ITRx_SetConfig>
      break;
 800348c:	e009      	b.n	80034a2 <HAL_TIM_ConfigClockSource+0x15e>
      TIM_ITRx_SetConfig(htim->Instance, sClockSourceConfig->ClockSource);
 800348e:	687b      	ldr	r3, [r7, #4]
 8003490:	681a      	ldr	r2, [r3, #0]
 8003492:	683b      	ldr	r3, [r7, #0]
 8003494:	681b      	ldr	r3, [r3, #0]
 8003496:	0019      	movs	r1, r3
 8003498:	0010      	movs	r0, r2
 800349a:	f000 f911 	bl	80036c0 <TIM_ITRx_SetConfig>
      break;
 800349e:	e000      	b.n	80034a2 <HAL_TIM_ConfigClockSource+0x15e>
      break;
 80034a0:	46c0      	nop			; (mov r8, r8)
  }
  htim->State = HAL_TIM_STATE_READY;
 80034a2:	687b      	ldr	r3, [r7, #4]
 80034a4:	223d      	movs	r2, #61	; 0x3d
 80034a6:	2101      	movs	r1, #1
 80034a8:	5499      	strb	r1, [r3, r2]

  __HAL_UNLOCK(htim);
 80034aa:	687b      	ldr	r3, [r7, #4]
 80034ac:	223c      	movs	r2, #60	; 0x3c
 80034ae:	2100      	movs	r1, #0
 80034b0:	5499      	strb	r1, [r3, r2]

  return HAL_OK;
 80034b2:	2300      	movs	r3, #0
}
 80034b4:	0018      	movs	r0, r3
 80034b6:	46bd      	mov	sp, r7
 80034b8:	b004      	add	sp, #16
 80034ba:	bd80      	pop	{r7, pc}
 80034bc:	ffff00ff 	.word	0xffff00ff

080034c0 <HAL_TIM_OC_DelayElapsedCallback>:
  * @brief  Output Compare callback in non-blocking mode
  * @param  htim TIM OC handle
  * @retval None
  */
__weak void HAL_TIM_OC_DelayElapsedCallback(TIM_HandleTypeDef *htim)
{
 80034c0:	b580      	push	{r7, lr}
 80034c2:	b082      	sub	sp, #8
 80034c4:	af00      	add	r7, sp, #0
 80034c6:	6078      	str	r0, [r7, #4]
  UNUSED(htim);

  /* NOTE : This function should not be modified, when the callback is needed,
            the HAL_TIM_OC_DelayElapsedCallback could be implemented in the user file
   */
}
 80034c8:	46c0      	nop			; (mov r8, r8)
 80034ca:	46bd      	mov	sp, r7
 80034cc:	b002      	add	sp, #8
 80034ce:	bd80      	pop	{r7, pc}

080034d0 <HAL_TIM_IC_CaptureCallback>:
  * @brief  Input Capture callback in non-blocking mode
  * @param  htim TIM IC handle
  * @retval None
  */
__weak void HAL_TIM_IC_CaptureCallback(TIM_HandleTypeDef *htim)
{
 80034d0:	b580      	push	{r7, lr}
 80034d2:	b082      	sub	sp, #8
 80034d4:	af00      	add	r7, sp, #0
 80034d6:	6078      	str	r0, [r7, #4]
  UNUSED(htim);

  /* NOTE : This function should not be modified, when the callback is needed,
            the HAL_TIM_IC_CaptureCallback could be implemented in the user file
   */
}
 80034d8:	46c0      	nop			; (mov r8, r8)
 80034da:	46bd      	mov	sp, r7
 80034dc:	b002      	add	sp, #8
 80034de:	bd80      	pop	{r7, pc}

080034e0 <HAL_TIM_PWM_PulseFinishedCallback>:
  * @brief  PWM Pulse finished callback in non-blocking mode
  * @param  htim TIM handle
  * @retval None
  */
__weak void HAL_TIM_PWM_PulseFinishedCallback(TIM_HandleTypeDef *htim)
{
 80034e0:	b580      	push	{r7, lr}
 80034e2:	b082      	sub	sp, #8
 80034e4:	af00      	add	r7, sp, #0
 80034e6:	6078      	str	r0, [r7, #4]
  UNUSED(htim);

  /* NOTE : This function should not be modified, when the callback is needed,
            the HAL_TIM_PWM_PulseFinishedCallback could be implemented in the user file
   */
}
 80034e8:	46c0      	nop			; (mov r8, r8)
 80034ea:	46bd      	mov	sp, r7
 80034ec:	b002      	add	sp, #8
 80034ee:	bd80      	pop	{r7, pc}

080034f0 <HAL_TIM_TriggerCallback>:
  * @brief  Hall Trigger detection callback in non-blocking mode
  * @param  htim TIM handle
  * @retval None
  */
__weak void HAL_TIM_TriggerCallback(TIM_HandleTypeDef *htim)
{
 80034f0:	b580      	push	{r7, lr}
 80034f2:	b082      	sub	sp, #8
 80034f4:	af00      	add	r7, sp, #0
 80034f6:	6078      	str	r0, [r7, #4]
  UNUSED(htim);

  /* NOTE : This function should not be modified, when the callback is needed,
            the HAL_TIM_TriggerCallback could be implemented in the user file
   */
}
 80034f8:	46c0      	nop			; (mov r8, r8)
 80034fa:	46bd      	mov	sp, r7
 80034fc:	b002      	add	sp, #8
 80034fe:	bd80      	pop	{r7, pc}

08003500 <TIM_Base_SetConfig>:
  * @param  TIMx TIM peripheral
  * @param  Structure TIM Base configuration structure
  * @retval None
  */
void TIM_Base_SetConfig(TIM_TypeDef *TIMx, TIM_Base_InitTypeDef *Structure)
{
 8003500:	b580      	push	{r7, lr}
 8003502:	b084      	sub	sp, #16
 8003504:	af00      	add	r7, sp, #0
 8003506:	6078      	str	r0, [r7, #4]
 8003508:	6039      	str	r1, [r7, #0]
  uint32_t tmpcr1;
  tmpcr1 = TIMx->CR1;
 800350a:	687b      	ldr	r3, [r7, #4]
 800350c:	681b      	ldr	r3, [r3, #0]
 800350e:	60fb      	str	r3, [r7, #12]

  /* Set TIM Time Base Unit parameters ---------------------------------------*/
  if (IS_TIM_COUNTER_MODE_SELECT_INSTANCE(TIMx))
 8003510:	687b      	ldr	r3, [r7, #4]
 8003512:	4a34      	ldr	r2, [pc, #208]	; (80035e4 <TIM_Base_SetConfig+0xe4>)
 8003514:	4293      	cmp	r3, r2
 8003516:	d008      	beq.n	800352a <TIM_Base_SetConfig+0x2a>
 8003518:	687a      	ldr	r2, [r7, #4]
 800351a:	2380      	movs	r3, #128	; 0x80
 800351c:	05db      	lsls	r3, r3, #23
 800351e:	429a      	cmp	r2, r3
 8003520:	d003      	beq.n	800352a <TIM_Base_SetConfig+0x2a>
 8003522:	687b      	ldr	r3, [r7, #4]
 8003524:	4a30      	ldr	r2, [pc, #192]	; (80035e8 <TIM_Base_SetConfig+0xe8>)
 8003526:	4293      	cmp	r3, r2
 8003528:	d108      	bne.n	800353c <TIM_Base_SetConfig+0x3c>
  {
    /* Select the Counter Mode */
    tmpcr1 &= ~(TIM_CR1_DIR | TIM_CR1_CMS);
 800352a:	68fb      	ldr	r3, [r7, #12]
 800352c:	2270      	movs	r2, #112	; 0x70
 800352e:	4393      	bics	r3, r2
 8003530:	60fb      	str	r3, [r7, #12]
    tmpcr1 |= Structure->CounterMode;
 8003532:	683b      	ldr	r3, [r7, #0]
 8003534:	685b      	ldr	r3, [r3, #4]
 8003536:	68fa      	ldr	r2, [r7, #12]
 8003538:	4313      	orrs	r3, r2
 800353a:	60fb      	str	r3, [r7, #12]
  }

  if (IS_TIM_CLOCK_DIVISION_INSTANCE(TIMx))
 800353c:	687b      	ldr	r3, [r7, #4]
 800353e:	4a29      	ldr	r2, [pc, #164]	; (80035e4 <TIM_Base_SetConfig+0xe4>)
 8003540:	4293      	cmp	r3, r2
 8003542:	d018      	beq.n	8003576 <TIM_Base_SetConfig+0x76>
 8003544:	687a      	ldr	r2, [r7, #4]
 8003546:	2380      	movs	r3, #128	; 0x80
 8003548:	05db      	lsls	r3, r3, #23
 800354a:	429a      	cmp	r2, r3
 800354c:	d013      	beq.n	8003576 <TIM_Base_SetConfig+0x76>
 800354e:	687b      	ldr	r3, [r7, #4]
 8003550:	4a25      	ldr	r2, [pc, #148]	; (80035e8 <TIM_Base_SetConfig+0xe8>)
 8003552:	4293      	cmp	r3, r2
 8003554:	d00f      	beq.n	8003576 <TIM_Base_SetConfig+0x76>
 8003556:	687b      	ldr	r3, [r7, #4]
 8003558:	4a24      	ldr	r2, [pc, #144]	; (80035ec <TIM_Base_SetConfig+0xec>)
 800355a:	4293      	cmp	r3, r2
 800355c:	d00b      	beq.n	8003576 <TIM_Base_SetConfig+0x76>
 800355e:	687b      	ldr	r3, [r7, #4]
 8003560:	4a23      	ldr	r2, [pc, #140]	; (80035f0 <TIM_Base_SetConfig+0xf0>)
 8003562:	4293      	cmp	r3, r2
 8003564:	d007      	beq.n	8003576 <TIM_Base_SetConfig+0x76>
 8003566:	687b      	ldr	r3, [r7, #4]
 8003568:	4a22      	ldr	r2, [pc, #136]	; (80035f4 <TIM_Base_SetConfig+0xf4>)
 800356a:	4293      	cmp	r3, r2
 800356c:	d003      	beq.n	8003576 <TIM_Base_SetConfig+0x76>
 800356e:	687b      	ldr	r3, [r7, #4]
 8003570:	4a21      	ldr	r2, [pc, #132]	; (80035f8 <TIM_Base_SetConfig+0xf8>)
 8003572:	4293      	cmp	r3, r2
 8003574:	d108      	bne.n	8003588 <TIM_Base_SetConfig+0x88>
  {
    /* Set the clock division */
    tmpcr1 &= ~TIM_CR1_CKD;
 8003576:	68fb      	ldr	r3, [r7, #12]
 8003578:	4a20      	ldr	r2, [pc, #128]	; (80035fc <TIM_Base_SetConfig+0xfc>)
 800357a:	4013      	ands	r3, r2
 800357c:	60fb      	str	r3, [r7, #12]
    tmpcr1 |= (uint32_t)Structure->ClockDivision;
 800357e:	683b      	ldr	r3, [r7, #0]
 8003580:	68db      	ldr	r3, [r3, #12]
 8003582:	68fa      	ldr	r2, [r7, #12]
 8003584:	4313      	orrs	r3, r2
 8003586:	60fb      	str	r3, [r7, #12]
  }

  /* Set the auto-reload preload */
  MODIFY_REG(tmpcr1, TIM_CR1_ARPE, Structure->AutoReloadPreload);
 8003588:	68fb      	ldr	r3, [r7, #12]
 800358a:	2280      	movs	r2, #128	; 0x80
 800358c:	4393      	bics	r3, r2
 800358e:	001a      	movs	r2, r3
 8003590:	683b      	ldr	r3, [r7, #0]
 8003592:	695b      	ldr	r3, [r3, #20]
 8003594:	4313      	orrs	r3, r2
 8003596:	60fb      	str	r3, [r7, #12]

  TIMx->CR1 = tmpcr1;
 8003598:	687b      	ldr	r3, [r7, #4]
 800359a:	68fa      	ldr	r2, [r7, #12]
 800359c:	601a      	str	r2, [r3, #0]

  /* Set the Autoreload value */
  TIMx->ARR = (uint32_t)Structure->Period ;
 800359e:	683b      	ldr	r3, [r7, #0]
 80035a0:	689a      	ldr	r2, [r3, #8]
 80035a2:	687b      	ldr	r3, [r7, #4]
 80035a4:	62da      	str	r2, [r3, #44]	; 0x2c

  /* Set the Prescaler value */
  TIMx->PSC = Structure->Prescaler;
 80035a6:	683b      	ldr	r3, [r7, #0]
 80035a8:	681a      	ldr	r2, [r3, #0]
 80035aa:	687b      	ldr	r3, [r7, #4]
 80035ac:	629a      	str	r2, [r3, #40]	; 0x28

  if (IS_TIM_REPETITION_COUNTER_INSTANCE(TIMx))
 80035ae:	687b      	ldr	r3, [r7, #4]
 80035b0:	4a0c      	ldr	r2, [pc, #48]	; (80035e4 <TIM_Base_SetConfig+0xe4>)
 80035b2:	4293      	cmp	r3, r2
 80035b4:	d00b      	beq.n	80035ce <TIM_Base_SetConfig+0xce>
 80035b6:	687b      	ldr	r3, [r7, #4]
 80035b8:	4a0d      	ldr	r2, [pc, #52]	; (80035f0 <TIM_Base_SetConfig+0xf0>)
 80035ba:	4293      	cmp	r3, r2
 80035bc:	d007      	beq.n	80035ce <TIM_Base_SetConfig+0xce>
 80035be:	687b      	ldr	r3, [r7, #4]
 80035c0:	4a0c      	ldr	r2, [pc, #48]	; (80035f4 <TIM_Base_SetConfig+0xf4>)
 80035c2:	4293      	cmp	r3, r2
 80035c4:	d003      	beq.n	80035ce <TIM_Base_SetConfig+0xce>
 80035c6:	687b      	ldr	r3, [r7, #4]
 80035c8:	4a0b      	ldr	r2, [pc, #44]	; (80035f8 <TIM_Base_SetConfig+0xf8>)
 80035ca:	4293      	cmp	r3, r2
 80035cc:	d103      	bne.n	80035d6 <TIM_Base_SetConfig+0xd6>
  {
    /* Set the Repetition Counter value */
    TIMx->RCR = Structure->RepetitionCounter;
 80035ce:	683b      	ldr	r3, [r7, #0]
 80035d0:	691a      	ldr	r2, [r3, #16]
 80035d2:	687b      	ldr	r3, [r7, #4]
 80035d4:	631a      	str	r2, [r3, #48]	; 0x30
  }

  /* Generate an update event to reload the Prescaler
     and the repetition counter (only for advanced timer) value immediately */
  TIMx->EGR = TIM_EGR_UG;
 80035d6:	687b      	ldr	r3, [r7, #4]
 80035d8:	2201      	movs	r2, #1
 80035da:	615a      	str	r2, [r3, #20]
}
 80035dc:	46c0      	nop			; (mov r8, r8)
 80035de:	46bd      	mov	sp, r7
 80035e0:	b004      	add	sp, #16
 80035e2:	bd80      	pop	{r7, pc}
 80035e4:	40012c00 	.word	0x40012c00
 80035e8:	40000400 	.word	0x40000400
 80035ec:	40002000 	.word	0x40002000
 80035f0:	40014000 	.word	0x40014000
 80035f4:	40014400 	.word	0x40014400
 80035f8:	40014800 	.word	0x40014800
 80035fc:	fffffcff 	.word	0xfffffcff

08003600 <TIM_TI1_ConfigInputStage>:
  * @param  TIM_ICFilter Specifies the Input Capture Filter.
  *          This parameter must be a value between 0x00 and 0x0F.
  * @retval None
  */
static void TIM_TI1_ConfigInputStage(TIM_TypeDef *TIMx, uint32_t TIM_ICPolarity, uint32_t TIM_ICFilter)
{
 8003600:	b580      	push	{r7, lr}
 8003602:	b086      	sub	sp, #24
 8003604:	af00      	add	r7, sp, #0
 8003606:	60f8      	str	r0, [r7, #12]
 8003608:	60b9      	str	r1, [r7, #8]
 800360a:	607a      	str	r2, [r7, #4]
  uint32_t tmpccmr1;
  uint32_t tmpccer;

  /* Disable the Channel 1: Reset the CC1E Bit */
  tmpccer = TIMx->CCER;
 800360c:	68fb      	ldr	r3, [r7, #12]
 800360e:	6a1b      	ldr	r3, [r3, #32]
 8003610:	617b      	str	r3, [r7, #20]
  TIMx->CCER &= ~TIM_CCER_CC1E;
 8003612:	68fb      	ldr	r3, [r7, #12]
 8003614:	6a1b      	ldr	r3, [r3, #32]
 8003616:	2201      	movs	r2, #1
 8003618:	4393      	bics	r3, r2
 800361a:	001a      	movs	r2, r3
 800361c:	68fb      	ldr	r3, [r7, #12]
 800361e:	621a      	str	r2, [r3, #32]
  tmpccmr1 = TIMx->CCMR1;
 8003620:	68fb      	ldr	r3, [r7, #12]
 8003622:	699b      	ldr	r3, [r3, #24]
 8003624:	613b      	str	r3, [r7, #16]

  /* Set the filter */
  tmpccmr1 &= ~TIM_CCMR1_IC1F;
 8003626:	693b      	ldr	r3, [r7, #16]
 8003628:	22f0      	movs	r2, #240	; 0xf0
 800362a:	4393      	bics	r3, r2
 800362c:	613b      	str	r3, [r7, #16]
  tmpccmr1 |= (TIM_ICFilter << 4U);
 800362e:	687b      	ldr	r3, [r7, #4]
 8003630:	011b      	lsls	r3, r3, #4
 8003632:	693a      	ldr	r2, [r7, #16]
 8003634:	4313      	orrs	r3, r2
 8003636:	613b      	str	r3, [r7, #16]

  /* Select the Polarity and set the CC1E Bit */
  tmpccer &= ~(TIM_CCER_CC1P | TIM_CCER_CC1NP);
 8003638:	697b      	ldr	r3, [r7, #20]
 800363a:	220a      	movs	r2, #10
 800363c:	4393      	bics	r3, r2
 800363e:	617b      	str	r3, [r7, #20]
  tmpccer |= TIM_ICPolarity;
 8003640:	697a      	ldr	r2, [r7, #20]
 8003642:	68bb      	ldr	r3, [r7, #8]
 8003644:	4313      	orrs	r3, r2
 8003646:	617b      	str	r3, [r7, #20]

  /* Write to TIMx CCMR1 and CCER registers */
  TIMx->CCMR1 = tmpccmr1;
 8003648:	68fb      	ldr	r3, [r7, #12]
 800364a:	693a      	ldr	r2, [r7, #16]
 800364c:	619a      	str	r2, [r3, #24]
  TIMx->CCER = tmpccer;
 800364e:	68fb      	ldr	r3, [r7, #12]
 8003650:	697a      	ldr	r2, [r7, #20]
 8003652:	621a      	str	r2, [r3, #32]
}
 8003654:	46c0      	nop			; (mov r8, r8)
 8003656:	46bd      	mov	sp, r7
 8003658:	b006      	add	sp, #24
 800365a:	bd80      	pop	{r7, pc}

0800365c <TIM_TI2_ConfigInputStage>:
  * @param  TIM_ICFilter Specifies the Input Capture Filter.
  *          This parameter must be a value between 0x00 and 0x0F.
  * @retval None
  */
static void TIM_TI2_ConfigInputStage(TIM_TypeDef *TIMx, uint32_t TIM_ICPolarity, uint32_t TIM_ICFilter)
{
 800365c:	b580      	push	{r7, lr}
 800365e:	b086      	sub	sp, #24
 8003660:	af00      	add	r7, sp, #0
 8003662:	60f8      	str	r0, [r7, #12]
 8003664:	60b9      	str	r1, [r7, #8]
 8003666:	607a      	str	r2, [r7, #4]
  uint32_t tmpccmr1;
  uint32_t tmpccer;

  /* Disable the Channel 2: Reset the CC2E Bit */
  TIMx->CCER &= ~TIM_CCER_CC2E;
 8003668:	68fb      	ldr	r3, [r7, #12]
 800366a:	6a1b      	ldr	r3, [r3, #32]
 800366c:	2210      	movs	r2, #16
 800366e:	4393      	bics	r3, r2
 8003670:	001a      	movs	r2, r3
 8003672:	68fb      	ldr	r3, [r7, #12]
 8003674:	621a      	str	r2, [r3, #32]
  tmpccmr1 = TIMx->CCMR1;
 8003676:	68fb      	ldr	r3, [r7, #12]
 8003678:	699b      	ldr	r3, [r3, #24]
 800367a:	617b      	str	r3, [r7, #20]
  tmpccer = TIMx->CCER;
 800367c:	68fb      	ldr	r3, [r7, #12]
 800367e:	6a1b      	ldr	r3, [r3, #32]
 8003680:	613b      	str	r3, [r7, #16]

  /* Set the filter */
  tmpccmr1 &= ~TIM_CCMR1_IC2F;
 8003682:	697b      	ldr	r3, [r7, #20]
 8003684:	4a0d      	ldr	r2, [pc, #52]	; (80036bc <TIM_TI2_ConfigInputStage+0x60>)
 8003686:	4013      	ands	r3, r2
 8003688:	617b      	str	r3, [r7, #20]
  tmpccmr1 |= (TIM_ICFilter << 12U);
 800368a:	687b      	ldr	r3, [r7, #4]
 800368c:	031b      	lsls	r3, r3, #12
 800368e:	697a      	ldr	r2, [r7, #20]
 8003690:	4313      	orrs	r3, r2
 8003692:	617b      	str	r3, [r7, #20]

  /* Select the Polarity and set the CC2E Bit */
  tmpccer &= ~(TIM_CCER_CC2P | TIM_CCER_CC2NP);
 8003694:	693b      	ldr	r3, [r7, #16]
 8003696:	22a0      	movs	r2, #160	; 0xa0
 8003698:	4393      	bics	r3, r2
 800369a:	613b      	str	r3, [r7, #16]
  tmpccer |= (TIM_ICPolarity << 4U);
 800369c:	68bb      	ldr	r3, [r7, #8]
 800369e:	011b      	lsls	r3, r3, #4
 80036a0:	693a      	ldr	r2, [r7, #16]
 80036a2:	4313      	orrs	r3, r2
 80036a4:	613b      	str	r3, [r7, #16]

  /* Write to TIMx CCMR1 and CCER registers */
  TIMx->CCMR1 = tmpccmr1 ;
 80036a6:	68fb      	ldr	r3, [r7, #12]
 80036a8:	697a      	ldr	r2, [r7, #20]
 80036aa:	619a      	str	r2, [r3, #24]
  TIMx->CCER = tmpccer;
 80036ac:	68fb      	ldr	r3, [r7, #12]
 80036ae:	693a      	ldr	r2, [r7, #16]
 80036b0:	621a      	str	r2, [r3, #32]
}
 80036b2:	46c0      	nop			; (mov r8, r8)
 80036b4:	46bd      	mov	sp, r7
 80036b6:	b006      	add	sp, #24
 80036b8:	bd80      	pop	{r7, pc}
 80036ba:	46c0      	nop			; (mov r8, r8)
 80036bc:	ffff0fff 	.word	0xffff0fff

080036c0 <TIM_ITRx_SetConfig>:
  *            @arg TIM_TS_TI2FP2: Filtered Timer Input 2
  *            @arg TIM_TS_ETRF: External Trigger input
  * @retval None
  */
static void TIM_ITRx_SetConfig(TIM_TypeDef *TIMx, uint32_t InputTriggerSource)
{
 80036c0:	b580      	push	{r7, lr}
 80036c2:	b084      	sub	sp, #16
 80036c4:	af00      	add	r7, sp, #0
 80036c6:	6078      	str	r0, [r7, #4]
 80036c8:	6039      	str	r1, [r7, #0]
  uint32_t tmpsmcr;

  /* Get the TIMx SMCR register value */
  tmpsmcr = TIMx->SMCR;
 80036ca:	687b      	ldr	r3, [r7, #4]
 80036cc:	689b      	ldr	r3, [r3, #8]
 80036ce:	60fb      	str	r3, [r7, #12]
  /* Reset the TS Bits */
  tmpsmcr &= ~TIM_SMCR_TS;
 80036d0:	68fb      	ldr	r3, [r7, #12]
 80036d2:	2270      	movs	r2, #112	; 0x70
 80036d4:	4393      	bics	r3, r2
 80036d6:	60fb      	str	r3, [r7, #12]
  /* Set the Input Trigger source and the slave mode*/
  tmpsmcr |= (InputTriggerSource | TIM_SLAVEMODE_EXTERNAL1);
 80036d8:	683a      	ldr	r2, [r7, #0]
 80036da:	68fb      	ldr	r3, [r7, #12]
 80036dc:	4313      	orrs	r3, r2
 80036de:	2207      	movs	r2, #7
 80036e0:	4313      	orrs	r3, r2
 80036e2:	60fb      	str	r3, [r7, #12]
  /* Write to TIMx SMCR */
  TIMx->SMCR = tmpsmcr;
 80036e4:	687b      	ldr	r3, [r7, #4]
 80036e6:	68fa      	ldr	r2, [r7, #12]
 80036e8:	609a      	str	r2, [r3, #8]
}
 80036ea:	46c0      	nop			; (mov r8, r8)
 80036ec:	46bd      	mov	sp, r7
 80036ee:	b004      	add	sp, #16
 80036f0:	bd80      	pop	{r7, pc}
	...

080036f4 <TIM_ETR_SetConfig>:
  *          This parameter must be a value between 0x00 and 0x0F
  * @retval None
  */
void TIM_ETR_SetConfig(TIM_TypeDef *TIMx, uint32_t TIM_ExtTRGPrescaler,
                       uint32_t TIM_ExtTRGPolarity, uint32_t ExtTRGFilter)
{
 80036f4:	b580      	push	{r7, lr}
 80036f6:	b086      	sub	sp, #24
 80036f8:	af00      	add	r7, sp, #0
 80036fa:	60f8      	str	r0, [r7, #12]
 80036fc:	60b9      	str	r1, [r7, #8]
 80036fe:	607a      	str	r2, [r7, #4]
 8003700:	603b      	str	r3, [r7, #0]
  uint32_t tmpsmcr;

  tmpsmcr = TIMx->SMCR;
 8003702:	68fb      	ldr	r3, [r7, #12]
 8003704:	689b      	ldr	r3, [r3, #8]
 8003706:	617b      	str	r3, [r7, #20]

  /* Reset the ETR Bits */
  tmpsmcr &= ~(TIM_SMCR_ETF | TIM_SMCR_ETPS | TIM_SMCR_ECE | TIM_SMCR_ETP);
 8003708:	697b      	ldr	r3, [r7, #20]
 800370a:	4a09      	ldr	r2, [pc, #36]	; (8003730 <TIM_ETR_SetConfig+0x3c>)
 800370c:	4013      	ands	r3, r2
 800370e:	617b      	str	r3, [r7, #20]

  /* Set the Prescaler, the Filter value and the Polarity */
  tmpsmcr |= (uint32_t)(TIM_ExtTRGPrescaler | (TIM_ExtTRGPolarity | (ExtTRGFilter << 8U)));
 8003710:	683b      	ldr	r3, [r7, #0]
 8003712:	021a      	lsls	r2, r3, #8
 8003714:	687b      	ldr	r3, [r7, #4]
 8003716:	431a      	orrs	r2, r3
 8003718:	68bb      	ldr	r3, [r7, #8]
 800371a:	4313      	orrs	r3, r2
 800371c:	697a      	ldr	r2, [r7, #20]
 800371e:	4313      	orrs	r3, r2
 8003720:	617b      	str	r3, [r7, #20]

  /* Write to TIMx SMCR */
  TIMx->SMCR = tmpsmcr;
 8003722:	68fb      	ldr	r3, [r7, #12]
 8003724:	697a      	ldr	r2, [r7, #20]
 8003726:	609a      	str	r2, [r3, #8]
}
 8003728:	46c0      	nop			; (mov r8, r8)
 800372a:	46bd      	mov	sp, r7
 800372c:	b006      	add	sp, #24
 800372e:	bd80      	pop	{r7, pc}
 8003730:	ffff00ff 	.word	0xffff00ff

08003734 <HAL_TIMEx_MasterConfigSynchronization>:
  *         mode.
  * @retval HAL status
  */
HAL_StatusTypeDef HAL_TIMEx_MasterConfigSynchronization(TIM_HandleTypeDef *htim,
                                                        TIM_MasterConfigTypeDef *sMasterConfig)
{
 8003734:	b580      	push	{r7, lr}
 8003736:	b084      	sub	sp, #16
 8003738:	af00      	add	r7, sp, #0
 800373a:	6078      	str	r0, [r7, #4]
 800373c:	6039      	str	r1, [r7, #0]
  assert_param(IS_TIM_MASTER_INSTANCE(htim->Instance));
  assert_param(IS_TIM_TRGO_SOURCE(sMasterConfig->MasterOutputTrigger));
  assert_param(IS_TIM_MSM_STATE(sMasterConfig->MasterSlaveMode));

  /* Check input state */
  __HAL_LOCK(htim);
 800373e:	687b      	ldr	r3, [r7, #4]
 8003740:	223c      	movs	r2, #60	; 0x3c
 8003742:	5c9b      	ldrb	r3, [r3, r2]
 8003744:	2b01      	cmp	r3, #1
 8003746:	d101      	bne.n	800374c <HAL_TIMEx_MasterConfigSynchronization+0x18>
 8003748:	2302      	movs	r3, #2
 800374a:	e047      	b.n	80037dc <HAL_TIMEx_MasterConfigSynchronization+0xa8>
 800374c:	687b      	ldr	r3, [r7, #4]
 800374e:	223c      	movs	r2, #60	; 0x3c
 8003750:	2101      	movs	r1, #1
 8003752:	5499      	strb	r1, [r3, r2]

  /* Change the handler state */
  htim->State = HAL_TIM_STATE_BUSY;
 8003754:	687b      	ldr	r3, [r7, #4]
 8003756:	223d      	movs	r2, #61	; 0x3d
 8003758:	2102      	movs	r1, #2
 800375a:	5499      	strb	r1, [r3, r2]

  /* Get the TIMx CR2 register value */
  tmpcr2 = htim->Instance->CR2;
 800375c:	687b      	ldr	r3, [r7, #4]
 800375e:	681b      	ldr	r3, [r3, #0]
 8003760:	685b      	ldr	r3, [r3, #4]
 8003762:	60fb      	str	r3, [r7, #12]

  /* Get the TIMx SMCR register value */
  tmpsmcr = htim->Instance->SMCR;
 8003764:	687b      	ldr	r3, [r7, #4]
 8003766:	681b      	ldr	r3, [r3, #0]
 8003768:	689b      	ldr	r3, [r3, #8]
 800376a:	60bb      	str	r3, [r7, #8]

  /* Reset the MMS Bits */
  tmpcr2 &= ~TIM_CR2_MMS;
 800376c:	68fb      	ldr	r3, [r7, #12]
 800376e:	2270      	movs	r2, #112	; 0x70
 8003770:	4393      	bics	r3, r2
 8003772:	60fb      	str	r3, [r7, #12]
  /* Select the TRGO source */
  tmpcr2 |=  sMasterConfig->MasterOutputTrigger;
 8003774:	683b      	ldr	r3, [r7, #0]
 8003776:	681b      	ldr	r3, [r3, #0]
 8003778:	68fa      	ldr	r2, [r7, #12]
 800377a:	4313      	orrs	r3, r2
 800377c:	60fb      	str	r3, [r7, #12]

  /* Update TIMx CR2 */
  htim->Instance->CR2 = tmpcr2;
 800377e:	687b      	ldr	r3, [r7, #4]
 8003780:	681b      	ldr	r3, [r3, #0]
 8003782:	68fa      	ldr	r2, [r7, #12]
 8003784:	605a      	str	r2, [r3, #4]

  if (IS_TIM_SLAVE_INSTANCE(htim->Instance))
 8003786:	687b      	ldr	r3, [r7, #4]
 8003788:	681b      	ldr	r3, [r3, #0]
 800378a:	4a16      	ldr	r2, [pc, #88]	; (80037e4 <HAL_TIMEx_MasterConfigSynchronization+0xb0>)
 800378c:	4293      	cmp	r3, r2
 800378e:	d00f      	beq.n	80037b0 <HAL_TIMEx_MasterConfigSynchronization+0x7c>
 8003790:	687b      	ldr	r3, [r7, #4]
 8003792:	681a      	ldr	r2, [r3, #0]
 8003794:	2380      	movs	r3, #128	; 0x80
 8003796:	05db      	lsls	r3, r3, #23
 8003798:	429a      	cmp	r2, r3
 800379a:	d009      	beq.n	80037b0 <HAL_TIMEx_MasterConfigSynchronization+0x7c>
 800379c:	687b      	ldr	r3, [r7, #4]
 800379e:	681b      	ldr	r3, [r3, #0]
 80037a0:	4a11      	ldr	r2, [pc, #68]	; (80037e8 <HAL_TIMEx_MasterConfigSynchronization+0xb4>)
 80037a2:	4293      	cmp	r3, r2
 80037a4:	d004      	beq.n	80037b0 <HAL_TIMEx_MasterConfigSynchronization+0x7c>
 80037a6:	687b      	ldr	r3, [r7, #4]
 80037a8:	681b      	ldr	r3, [r3, #0]
 80037aa:	4a10      	ldr	r2, [pc, #64]	; (80037ec <HAL_TIMEx_MasterConfigSynchronization+0xb8>)
 80037ac:	4293      	cmp	r3, r2
 80037ae:	d10c      	bne.n	80037ca <HAL_TIMEx_MasterConfigSynchronization+0x96>
  {
    /* Reset the MSM Bit */
    tmpsmcr &= ~TIM_SMCR_MSM;
 80037b0:	68bb      	ldr	r3, [r7, #8]
 80037b2:	2280      	movs	r2, #128	; 0x80
 80037b4:	4393      	bics	r3, r2
 80037b6:	60bb      	str	r3, [r7, #8]
    /* Set master mode */
    tmpsmcr |= sMasterConfig->MasterSlaveMode;
 80037b8:	683b      	ldr	r3, [r7, #0]
 80037ba:	685b      	ldr	r3, [r3, #4]
 80037bc:	68ba      	ldr	r2, [r7, #8]
 80037be:	4313      	orrs	r3, r2
 80037c0:	60bb      	str	r3, [r7, #8]

    /* Update TIMx SMCR */
    htim->Instance->SMCR = tmpsmcr;
 80037c2:	687b      	ldr	r3, [r7, #4]
 80037c4:	681b      	ldr	r3, [r3, #0]
 80037c6:	68ba      	ldr	r2, [r7, #8]
 80037c8:	609a      	str	r2, [r3, #8]
  }

  /* Change the htim state */
  htim->State = HAL_TIM_STATE_READY;
 80037ca:	687b      	ldr	r3, [r7, #4]
 80037cc:	223d      	movs	r2, #61	; 0x3d
 80037ce:	2101      	movs	r1, #1
 80037d0:	5499      	strb	r1, [r3, r2]

  __HAL_UNLOCK(htim);
 80037d2:	687b      	ldr	r3, [r7, #4]
 80037d4:	223c      	movs	r2, #60	; 0x3c
 80037d6:	2100      	movs	r1, #0
 80037d8:	5499      	strb	r1, [r3, r2]

  return HAL_OK;
 80037da:	2300      	movs	r3, #0
}
 80037dc:	0018      	movs	r0, r3
 80037de:	46bd      	mov	sp, r7
 80037e0:	b004      	add	sp, #16
 80037e2:	bd80      	pop	{r7, pc}
 80037e4:	40012c00 	.word	0x40012c00
 80037e8:	40000400 	.word	0x40000400
 80037ec:	40014000 	.word	0x40014000

080037f0 <HAL_TIMEx_CommutCallback>:
  * @brief  Hall commutation changed callback in non-blocking mode
  * @param  htim TIM handle
  * @retval None
  */
__weak void HAL_TIMEx_CommutCallback(TIM_HandleTypeDef *htim)
{
 80037f0:	b580      	push	{r7, lr}
 80037f2:	b082      	sub	sp, #8
 80037f4:	af00      	add	r7, sp, #0
 80037f6:	6078      	str	r0, [r7, #4]
  UNUSED(htim);

  /* NOTE : This function should not be modified, when the callback is needed,
            the HAL_TIMEx_CommutCallback could be implemented in the user file
   */
}
 80037f8:	46c0      	nop			; (mov r8, r8)
 80037fa:	46bd      	mov	sp, r7
 80037fc:	b002      	add	sp, #8
 80037fe:	bd80      	pop	{r7, pc}

08003800 <HAL_TIMEx_BreakCallback>:
  * @brief  Hall Break detection callback in non-blocking mode
  * @param  htim TIM handle
  * @retval None
  */
__weak void HAL_TIMEx_BreakCallback(TIM_HandleTypeDef *htim)
{
 8003800:	b580      	push	{r7, lr}
 8003802:	b082      	sub	sp, #8
 8003804:	af00      	add	r7, sp, #0
 8003806:	6078      	str	r0, [r7, #4]
  UNUSED(htim);

  /* NOTE : This function should not be modified, when the callback is needed,
            the HAL_TIMEx_BreakCallback could be implemented in the user file
   */
}
 8003808:	46c0      	nop			; (mov r8, r8)
 800380a:	46bd      	mov	sp, r7
 800380c:	b002      	add	sp, #8
 800380e:	bd80      	pop	{r7, pc}

08003810 <__cxa_pure_virtual>:
 8003810:	b510      	push	{r4, lr}
 8003812:	f000 f805 	bl	8003820 <_ZSt9terminatev>

08003816 <_ZN10__cxxabiv111__terminateEPFvvE>:
 8003816:	b510      	push	{r4, lr}
 8003818:	4780      	blx	r0
 800381a:	f000 f809 	bl	8003830 <abort>
	...

08003820 <_ZSt9terminatev>:
 8003820:	4b02      	ldr	r3, [pc, #8]	; (800382c <_ZSt9terminatev+0xc>)
 8003822:	b510      	push	{r4, lr}
 8003824:	6818      	ldr	r0, [r3, #0]
 8003826:	f7ff fff6 	bl	8003816 <_ZN10__cxxabiv111__terminateEPFvvE>
 800382a:	46c0      	nop			; (mov r8, r8)
 800382c:	2000000c 	.word	0x2000000c

08003830 <abort>:
 8003830:	b510      	push	{r4, lr}
 8003832:	2006      	movs	r0, #6
 8003834:	f000 f860 	bl	80038f8 <raise>
 8003838:	2001      	movs	r0, #1
 800383a:	f7fd f9e5 	bl	8000c08 <_exit>
	...

08003840 <__errno>:
 8003840:	4b01      	ldr	r3, [pc, #4]	; (8003848 <__errno+0x8>)
 8003842:	6818      	ldr	r0, [r3, #0]
 8003844:	4770      	bx	lr
 8003846:	46c0      	nop			; (mov r8, r8)
 8003848:	20000010 	.word	0x20000010

0800384c <__libc_init_array>:
 800384c:	b570      	push	{r4, r5, r6, lr}
 800384e:	2600      	movs	r6, #0
 8003850:	4d0c      	ldr	r5, [pc, #48]	; (8003884 <__libc_init_array+0x38>)
 8003852:	4c0d      	ldr	r4, [pc, #52]	; (8003888 <__libc_init_array+0x3c>)
 8003854:	1b64      	subs	r4, r4, r5
 8003856:	10a4      	asrs	r4, r4, #2
 8003858:	42a6      	cmp	r6, r4
 800385a:	d109      	bne.n	8003870 <__libc_init_array+0x24>
 800385c:	2600      	movs	r6, #0
 800385e:	f000 f86b 	bl	8003938 <_init>
 8003862:	4d0a      	ldr	r5, [pc, #40]	; (800388c <__libc_init_array+0x40>)
 8003864:	4c0a      	ldr	r4, [pc, #40]	; (8003890 <__libc_init_array+0x44>)
 8003866:	1b64      	subs	r4, r4, r5
 8003868:	10a4      	asrs	r4, r4, #2
 800386a:	42a6      	cmp	r6, r4
 800386c:	d105      	bne.n	800387a <__libc_init_array+0x2e>
 800386e:	bd70      	pop	{r4, r5, r6, pc}
 8003870:	00b3      	lsls	r3, r6, #2
 8003872:	58eb      	ldr	r3, [r5, r3]
 8003874:	4798      	blx	r3
 8003876:	3601      	adds	r6, #1
 8003878:	e7ee      	b.n	8003858 <__libc_init_array+0xc>
 800387a:	00b3      	lsls	r3, r6, #2
 800387c:	58eb      	ldr	r3, [r5, r3]
 800387e:	4798      	blx	r3
 8003880:	3601      	adds	r6, #1
 8003882:	e7f2      	b.n	800386a <__libc_init_array+0x1e>
 8003884:	080039a8 	.word	0x080039a8
 8003888:	080039a8 	.word	0x080039a8
 800388c:	080039a8 	.word	0x080039a8
 8003890:	080039b0 	.word	0x080039b0

08003894 <memset>:
 8003894:	0003      	movs	r3, r0
 8003896:	1812      	adds	r2, r2, r0
 8003898:	4293      	cmp	r3, r2
 800389a:	d100      	bne.n	800389e <memset+0xa>
 800389c:	4770      	bx	lr
 800389e:	7019      	strb	r1, [r3, #0]
 80038a0:	3301      	adds	r3, #1
 80038a2:	e7f9      	b.n	8003898 <memset+0x4>

080038a4 <_raise_r>:
 80038a4:	b570      	push	{r4, r5, r6, lr}
 80038a6:	0004      	movs	r4, r0
 80038a8:	000d      	movs	r5, r1
 80038aa:	291f      	cmp	r1, #31
 80038ac:	d904      	bls.n	80038b8 <_raise_r+0x14>
 80038ae:	2316      	movs	r3, #22
 80038b0:	6003      	str	r3, [r0, #0]
 80038b2:	2001      	movs	r0, #1
 80038b4:	4240      	negs	r0, r0
 80038b6:	bd70      	pop	{r4, r5, r6, pc}
 80038b8:	6c43      	ldr	r3, [r0, #68]	; 0x44
 80038ba:	2b00      	cmp	r3, #0
 80038bc:	d004      	beq.n	80038c8 <_raise_r+0x24>
 80038be:	008a      	lsls	r2, r1, #2
 80038c0:	189b      	adds	r3, r3, r2
 80038c2:	681a      	ldr	r2, [r3, #0]
 80038c4:	2a00      	cmp	r2, #0
 80038c6:	d108      	bne.n	80038da <_raise_r+0x36>
 80038c8:	0020      	movs	r0, r4
 80038ca:	f000 f831 	bl	8003930 <_getpid_r>
 80038ce:	002a      	movs	r2, r5
 80038d0:	0001      	movs	r1, r0
 80038d2:	0020      	movs	r0, r4
 80038d4:	f000 f81a 	bl	800390c <_kill_r>
 80038d8:	e7ed      	b.n	80038b6 <_raise_r+0x12>
 80038da:	2000      	movs	r0, #0
 80038dc:	2a01      	cmp	r2, #1
 80038de:	d0ea      	beq.n	80038b6 <_raise_r+0x12>
 80038e0:	1c51      	adds	r1, r2, #1
 80038e2:	d103      	bne.n	80038ec <_raise_r+0x48>
 80038e4:	2316      	movs	r3, #22
 80038e6:	3001      	adds	r0, #1
 80038e8:	6023      	str	r3, [r4, #0]
 80038ea:	e7e4      	b.n	80038b6 <_raise_r+0x12>
 80038ec:	2400      	movs	r4, #0
 80038ee:	0028      	movs	r0, r5
 80038f0:	601c      	str	r4, [r3, #0]
 80038f2:	4790      	blx	r2
 80038f4:	0020      	movs	r0, r4
 80038f6:	e7de      	b.n	80038b6 <_raise_r+0x12>

080038f8 <raise>:
 80038f8:	b510      	push	{r4, lr}
 80038fa:	4b03      	ldr	r3, [pc, #12]	; (8003908 <raise+0x10>)
 80038fc:	0001      	movs	r1, r0
 80038fe:	6818      	ldr	r0, [r3, #0]
 8003900:	f7ff ffd0 	bl	80038a4 <_raise_r>
 8003904:	bd10      	pop	{r4, pc}
 8003906:	46c0      	nop			; (mov r8, r8)
 8003908:	20000010 	.word	0x20000010

0800390c <_kill_r>:
 800390c:	2300      	movs	r3, #0
 800390e:	b570      	push	{r4, r5, r6, lr}
 8003910:	4c06      	ldr	r4, [pc, #24]	; (800392c <_kill_r+0x20>)
 8003912:	0005      	movs	r5, r0
 8003914:	0008      	movs	r0, r1
 8003916:	0011      	movs	r1, r2
 8003918:	6023      	str	r3, [r4, #0]
 800391a:	f7fd f965 	bl	8000be8 <_kill>
 800391e:	1c43      	adds	r3, r0, #1
 8003920:	d103      	bne.n	800392a <_kill_r+0x1e>
 8003922:	6823      	ldr	r3, [r4, #0]
 8003924:	2b00      	cmp	r3, #0
 8003926:	d000      	beq.n	800392a <_kill_r+0x1e>
 8003928:	602b      	str	r3, [r5, #0]
 800392a:	bd70      	pop	{r4, r5, r6, pc}
 800392c:	200001f0 	.word	0x200001f0

08003930 <_getpid_r>:
 8003930:	b510      	push	{r4, lr}
 8003932:	f7fd f953 	bl	8000bdc <_getpid>
 8003936:	bd10      	pop	{r4, pc}

08003938 <_init>:
 8003938:	b5f8      	push	{r3, r4, r5, r6, r7, lr}
 800393a:	46c0      	nop			; (mov r8, r8)
 800393c:	bcf8      	pop	{r3, r4, r5, r6, r7}
 800393e:	bc08      	pop	{r3}
 8003940:	469e      	mov	lr, r3
 8003942:	4770      	bx	lr

08003944 <_fini>:
 8003944:	b5f8      	push	{r3, r4, r5, r6, r7, lr}
 8003946:	46c0      	nop			; (mov r8, r8)
 8003948:	bcf8      	pop	{r3, r4, r5, r6, r7}
 800394a:	bc08      	pop	{r3}
 800394c:	469e      	mov	lr, r3
 800394e:	4770      	bx	lr
